((dp1
I0
S'<END>'
p2
sI1
S'<START>'
p3
sI2
S'<TOK0>'
p4
sI3
S'<TOK1>'
p5
sI4
S'<TOK2>'
p6
sI5
S'<TOK3>'
p7
sI6
S'<TOK4>'
p8
sI7
S'<TOK5>'
p9
sI8
S'<TOK6>'
p10
sI9
S'<TOK7>'
p11
sI10
S'<TOK8>'
p12
sI11
S'<TOK9>'
p13
sI12
S'<TOK10>'
p14
sI13
S'<TOK11>'
p15
sI14
S'<TOK12>'
p16
sI15
S'<TOK13>'
p17
sI16
S'<TOK14>'
p18
sI17
S'<TOK15>'
p19
sI18
S'<TOK16>'
p20
sI19
S'<TOK17>'
p21
sI20
S'<TOK18>'
p22
sI21
S'<TOK19>'
p23
sI22
Vcalli,
p24
sI23
Vhaydon
p25
sI24
Vkaron,
p26
sI25
Vriccardo
p27
sI26
Vbritani,
p28
sI27
S'elisabeth'
p29
sI28
Vfour
p30
sI29
Vnananne
p31
sI30
Vgilberte,
p32
sI31
Vguinna
p33
sI32
Vroslyn
p34
sI33
Vflorence,
p35
sI34
Vsanford
p36
sI35
Vgeraldo
p37
sI36
Vtobie
p38
sI37
Vmallorie
p39
sI38
Vlaurel,
p40
sI39
Vregan
p41
sI40
Vlora
p42
sI41
Vclarissa,
p43
sI42
Vcrystie
p44
sI43
Vwood,
p45
sI44
Vaurore
p46
sI45
Vwilfred
p47
sI46
Vkassey
p48
sI47
Vdarbie
p49
sI48
Vbrandice,
p50
sI49
S'school'
p51
sI50
Vammamaria
p52
sI51
Vletta,
p53
sI52
S'wednesday'
p54
sI53
Vatlante,
p55
sI54
Vheddi,
p56
sI55
Vanjela,
p57
sI56
Vmarco,
p58
sI57
Velissa
p59
sI58
Vmarkos
p60
sI59
Vflore,
p61
sI60
S'street'
p62
sI61
Vtownie,
p63
sI62
Vmariejeanne,
p64
sI63
Vebeneser,
p65
sI64
Vdianemarie,
p66
sI65
Vchriss
p67
sI66
Vchrist
p68
sI67
Vroddy
p69
sI68
Vtucker,
p70
sI69
S'asia'
p71
sI70
Vdouglis
p72
sI71
Vnew
p73
sI72
Vhans,
p74
sI73
Vphilippe
p75
sI74
Vbutch,
p76
sI75
Vcollette
p77
sI76
Vparwane
p78
sI77
Vrodolphe,
p79
sI78
Vkarlee
p80
sI79
Vdore
p81
sI80
Vadey,
p82
sI81
Valeen
p83
sI82
Vgerry
p84
sI83
Vvite,
p85
sI84
S'economics'
p86
sI85
Variel,
p87
sI86
Vjuana
p88
sI87
Vjogging
p89
sI88
Vkristos,
p90
sI89
Vmalissa,
p91
sI90
Vcresa
p92
sI91
Vi'm
p93
sI92
Vbroddie,
p94
sI93
Vsibylla,
p95
sI94
Vlurette,
p96
sI95
Vmarianna
p97
sI96
Vrhett,
p98
sI97
Volaf,
p99
sI98
Vrickie,
p100
sI99
Vlynna
p101
sI100
Vjeremiah,
p102
sI101
Vjordy,
p103
sI102
Vwinny,
p104
sI103
Vfergus,
p105
sI104
Vrora,
p106
sI105
Vjanine
p107
sI106
Vmignonne,
p108
sI107
Vjobye,
p109
sI108
Vselena,
p110
sI109
Vwould
p111
sI110
Vthedrick,
p112
sI111
S'hospital'
p113
sI112
Vhan,
p114
sI113
Varliene
p115
sI114
Vflor,
p116
sI115
Vceil,
p117
sI116
Vcall
p118
sI117
Vbinky,
p119
sI118
Vomar,
p120
sI119
Vkalina
p121
sI120
Vuntil
p122
sI121
Vmarve
p123
sI122
Vgrier
p124
sI123
Vcandace,
p125
sI124
Vberchtold,
p126
sI125
Vmelba
p127
sI126
Vcarey,
p128
sI127
Venglebert,
p129
sI128
Vme
p130
sI129
S'room'
p131
sI130
Vflore
p132
sI131
Vhiro,
p133
sI132
Vboyce
p134
sI133
Vmillisent
p135
sI134
Vmaximilian
p136
sI135
S'erc'
p137
sI136
Vshoshanna,
p138
sI137
Vmy
p139
sI138
Vmatilda
p140
sI139
Vlise,
p141
sI140
Vlenee,
p142
sI141
Vbarty,
p143
sI142
Vmatthus
p144
sI143
Vmelony
p145
sI144
Vtaddeo,
p146
sI145
Vkaroly
p147
sI146
Vanatola
p148
sI147
Vmicky
p149
sI148
Vmaggee,
p150
sI149
Vjulissa
p151
sI150
Vorion
p152
sI151
Vlancelot
p153
sI152
Vwant
p154
sI153
Vmerissa
p155
sI154
Vend
p156
sI155
Vskyler
p157
sI156
Vjoane
p158
sI157
Vantonino
p159
sI158
Vdavie,
p160
sI159
Vwinny
p161
sI160
Valia,
p162
sI161
Vrabi,
p163
sI162
Vinterview
p164
sI163
S'hoy'
p165
sI164
Vriccardo,
p166
sI165
Vhersch
p167
sI166
Vconstanta
p168
sI167
Vwrong
p169
sI168
Vbecki
p170
sI169
Vhailee,
p171
sI170
Vmariejeanne
p172
sI171
Vdanyelle
p173
sI172
Varliene,
p174
sI173
S'law'
p175
sI174
Vciel,
p176
sI175
Vglenna
p177
sI176
Vrobinet,
p178
sI177
Vchristofer,
p179
sI178
Voralle
p180
sI179
Vjania
p181
sI180
Vtonya,
p182
sI181
S'g16'
p183
sI182
Vdanna
p184
sI183
Vpeg,
p185
sI184
Vaharon
p186
sI185
Vgenny,
p187
sI186
Vjordy
p188
sI187
Vover
p189
sI188
Vsibylla
p190
sI189
Vpascal
p191
sI190
Vmaressa,
p192
sI191
Vflower,
p193
sI192
Vvita
p194
sI193
Vberkie,
p195
sI194
Vaugusta,
p196
sI195
Vvite
p197
sI196
Vbrandice
p198
sI197
Vworthington,
p199
sI198
Vedith
p200
sI199
Vchristie
p201
sI200
Vjoanne,
p202
sI201
Vbaily
p203
sI202
Vconney
p204
sI203
Venrica
p205
sI204
Vlavinie,
p206
sI205
Voran,
p207
sI206
Vantone,
p208
sI207
Vlynette,
p209
sI208
Vleeann,
p210
sI209
Vania
p211
sI210
Vflynn,
p212
sI211
Vmorena,
p213
sI212
Vdanyette,
p214
sI213
Valex
p215
sI214
S'quadrangle'
p216
sI215
Vnixie
p217
sI216
Vbrooks,
p218
sI217
Vyovonnda
p219
sI218
Vmead
p220
sI219
Vtamarra,
p221
sI220
Vblinni
p222
sI221
Vroxy
p223
sI222
Vreginald,
p224
sI223
Vstarlene
p225
sI224
Vtamarra
p226
sI225
Vkellie,
p227
sI226
Vblinny
p228
sI227
Vroxi
p229
sI228
S'doug'
p230
sI229
Vbarrie,
p231
sI230
Vbeilul
p232
sI231
Vtruman
p233
sI232
Vglorianna
p234
sI233
S'saturday'
p235
sI234
Vkathlene
p236
sI235
Vanselm,
p237
sI236
Vforty
p238
sI237
Vdaniel
p239
sI238
Vodette,
p240
sI239
S'medicine'
p241
sI240
Vmandi
p242
sI241
Vcarry,
p243
sI242
Vtillie,
p244
sI243
Vclarence
p245
sI244
Vneddy,
p246
sI245
Vdorian,
p247
sI246
Vkimberley,
p248
sI247
Vdorolisa
p249
sI248
Vbenson,
p250
sI249
Vstarts
p251
sI250
Vanson,
p252
sI251
Vaurore,
p253
sI252
Vdamaris
p254
sI253
Vjulissa,
p255
sI254
Vhannibal
p256
sI255
Vcynthia,
p257
sI256
Vhewett
p258
sI257
Vbearnard
p259
sI258
Vmelba,
p260
sI259
Vgera,
p261
sI260
Vclementia
p262
sI261
Vcarree
p263
sI262
Vcarlyle
p264
sI263
Vperi,
p265
sI264
Vira,
p266
sI265
S'service'
p267
sI266
Vdarwin,
p268
sI267
Vpeggie
p269
sI268
Vinger
p270
sI269
Vbroddie
p271
sI270
S'gilbert'
p272
sI271
S'john'
p273
sI272
Vjeff,
p274
sI273
Vdion,
p275
sI274
Vstephie,
p276
sI275
Volag,
p277
sI276
Valbert
p278
sI277
Vdorisa,
p279
sI278
Vbegins
p280
sI279
Vmercy
p281
sI280
Vnomi,
p282
sI281
Vpeggi,
p283
sI282
Vbartolomei
p284
sI283
Vgisele,
p285
sI284
Vkathye,
p286
sI285
Vrockwell,
p287
sI286
Vilene
p288
sI287
Vyancey
p289
sI288
Vmind
p290
sI289
Vsharity
p291
sI290
Voneida,
p292
sI291
S'childcare'
p293
sI292
Vferinand
p294
sI293
Vwestleigh
p295
sI294
Vsashenka
p296
sI295
Vterrie
p297
sI296
Vrockwell
p298
sI297
S'-'
sI298
Vmaryrose
p299
sI299
Vclarette,
p300
sI300
Vgwenni
p301
sI301
Vulrica
p302
sI302
Valma,
p303
sI303
Vmarve,
p304
sI304
Vinigo
p305
sI305
Vsinclare
p306
sI306
Vdorolice,
p307
sI307
Vcherin,
p308
sI308
Vshoshanna
p309
sI309
Vbard,
p310
sI310
Vjean
p311
sI311
Vantonino,
p312
sI312
Vanthony,
p313
sI313
S'don'
p314
sI314
Vmignonne
p315
sI315
Vrogers
p316
sI316
Vdom
p317
sI317
Vflor
p318
sI318
Valarm
p319
sI319
Vkarry
p320
sI320
Vconstanta,
p321
sI321
Vsherye
p322
sI322
Vconstance
p323
sI323
Vjean-lou,
p324
sI324
Vkristen
p325
sI325
Vgladis
p326
sI326
Vmelony,
p327
sI327
Vchariot
p328
sI328
Vmyrta,
p329
sI329
Vterese
p330
sI330
Vclaudina,
p331
sI331
S'earth'
p332
sI332
Vmaribeth
p333
sI333
Vcybelle
p334
sI334
Vjoao,
p335
sI335
Vvinni
p336
sI336
Vwoodie,
p337
sI337
Vem,
p338
sI338
Vkylila
p339
sI339
Vrick
p340
sI340
Vtomi,
p341
sI341
Vstephani
p342
sI342
Vjania,
p343
sI343
Vebonee,
p344
sI344
Vdanya,
p345
sI345
Vdo
p346
sI346
Vnewton
p347
sI347
Vtammi
p348
sI348
Vwatch
p349
sI349
Vceil
p350
sI350
Vmeditate
p351
sI351
Vwilow
p352
sI352
Vreport
p353
sI353
S'15'
p354
sI354
Vearl
p355
sI355
Vignatius,
p356
sI356
Vginni,
p357
sI357
Vajay,
p358
sI358
Vric,
p359
sI359
Vbrana,
p360
sI360
Vleda,
p361
sI361
Vtandy,
p362
sI362
Vcherey,
p363
sI363
Vgiraldo
p364
sI364
Vleola,
p365
sI365
Vconney,
p366
sI366
Vclarance,
p367
sI367
Vmelvyn,
p368
sI368
Vclarette
p369
sI369
Vlorita,
p370
sI370
Vperla,
p371
sI371
Verika
p372
sI372
Vrandolph,
p373
sI373
Vclea
p374
sI374
Vkial,
p375
sI375
Vsaid
p376
sI376
Vcarleigh
p377
sI377
S'grattan'
p378
sI378
Vcristine,
p379
sI379
Vreggy
p380
sI380
Vpaolina,
p381
sI381
Vira
p382
sI382
Vulrike,
p383
sI383
Vrobb,
p384
sI384
Vgavra,
p385
sI385
Vnena
p386
sI386
Vemelda,
p387
sI387
Vethyl,
p388
sI388
Vmeredith
p389
sI389
Vflorian,
p390
sI390
S'myer'
p391
sI391
Vedgar
p392
sI392
Vmichaella
p393
sI393
Vcob
p394
sI394
Vdulsea
p395
sI395
Vwinnie
p396
sI396
Vjosh
p397
sI397
Vtomkin
p398
sI398
S'mcphee'
p399
sI399
S'initiative'
p400
sI400
Vcelestyn
p401
sI401
Vpetronille,
p402
sI402
Vthibaud,
p403
sI403
S'union'
p404
sI404
Vthree
p405
sI405
V.
sI406
Vkelsi
p406
sI407
Vsammy,
p407
sI408
Vannalee,
p408
sI409
S'life'
p409
sI410
Vkellen
p410
sI411
Vdave
p411
sI412
Vyigal,
p412
sI413
Vclarance
p413
sI414
Vwilow,
p414
sI415
Vchandal,
p415
sI416
Vjeanne,
p416
sI417
Vcharisse
p417
sI418
Vkalvin,
p418
sI419
Vberenice,
p419
sI420
Vcatlee,
p420
sI421
Vjerald
p421
sI422
Vraymund
p422
sI423
Vtheodor,
p423
sI424
Vseven
p424
sI425
Vquincey
p425
sI426
Vbrewer
p426
sI427
Vtownie
p427
sI428
Vis
p428
sI429
Vphillipp,
p429
sI430
Vit
p430
sI431
Vpeggie,
p431
sI432
Vjess
p432
sI433
Vmirabella
p433
sI434
Veighteen
p434
sI435
Velijah,
p435
sI436
Vzebulen
p436
sI437
Vashton,
p437
sI438
Vin
p438
sI439
Vmerola
p439
sI440
S'pathology'
p440
sI441
Vlottie
p441
sI442
Vleonelle
p442
sI443
Vmyrta
p443
sI444
S'memorial'
p444
sI445
Vbrenna
p445
sI446
Vbelle
p446
sI447
Vmake
p447
sI448
Vbella
p448
sI449
Vruperta
p449
sI450
Vkarlotta,
p450
sI451
Vtomkin,
p451
sI452
Vmead,
p452
sI453
Vmilt,
p453
sI454
Vinger,
p454
sI455
Vambrose,
p455
sI456
Vgerry,
p456
sI457
Vhang
p457
sI458
Vhans
p458
sI459
Vanatol,
p459
sI460
Vcarilyn,
p460
sI461
Vbartolomei,
p461
sI462
Vharmon,
p462
sI463
Vdylan
p463
sI464
Vlucas
p464
sI465
Vcharlie
p465
sI466
Vtobie,
p466
sI467
Vlorelei,
p467
sI468
S'academic'
p468
sI469
Vcoleman,
p469
sI470
Vlindsey,
p470
sI471
Vthe
p471
sI472
S'spencer'
p472
sI473
Vmarcy
p473
sI474
Vkalina,
p474
sI475
Vtedman
p475
sI476
Vgreg,
p476
sI477
Vroderick
p477
sI478
Vthanks
p478
sI479
Vsheena
p479
sI480
Vyes
p480
sI481
Vsue-elle,
p481
sI482
Vmohamed
p482
sI483
Vthane,
p483
sI484
Vhan
p484
sI485
S'sciences'
p485
sI486
Vcherry
p486
sI487
S'royal'
p487
sI488
Vtrina
p488
sI489
Vkalvin
p489
sI490
Vhally,
p490
sI491
Vkeeley
p491
sI492
Vcelestine,
p492
sI493
Valthea
p493
sI494
Vthibaud
p494
sI495
Vgregg
p495
sI496
Vcalypso,
p496
sI497
Vmaynord,
p497
sI498
Vambrose
p498
sI499
Vgustaf
p499
sI500
Vkylila,
p500
sI501
Vdonal
p501
sI502
Vroslyn,
p502
sI503
Vnelie,
p503
sI504
Vizaak
p504
sI505
Vjoana,
p505
sI506
Vorton,
p506
sI507
S'alice'
p507
sI508
Vjule,
p508
sI509
Vremind
p509
sI510
Vgwendolyn
p510
sI511
Vbessy,
p511
sI512
Vnight
p512
sI513
Vzarah,
p513
sI514
Vright
p514
sI515
S'old'
p515
sI516
Vmeredith,
p516
sI517
Vlorraine,
p517
sI518
Vbenni,
p518
sI519
Vkirstyn,
p519
sI520
Vmiguelita,
p520
sI521
Vdorian
p521
sI522
Vthadeus,
p522
sI523
Vdamaris,
p523
sI524
Vemmaline,
p524
sI525
Vsharia,
p525
sI526
Vfor
p526
sI527
Vflorence
p527
sI528
Vfox
p528
sI529
Vginnie,
p529
sI530
Vphilippe,
p530
sI531
Vjanith
p531
sI532
Vfiorenze,
p532
sI533
Vburl
p533
sI534
Vdental
p534
sI535
Vstefan
p535
sI536
Vaurea,
p536
sI537
Vdevora,
p537
sI538
Vrhona
p538
sI539
Vede,
p539
sI540
Vdonal,
p540
sI541
Vleandra,
p541
sI542
Vdotti
p542
sI543
Vcoral
p543
sI544
Vadey
p544
sI545
Vtymothy
p545
sI546
Vdinner
p546
sI547
Vafternoon
p547
sI548
Vvilma
p548
sI549
Vharrie,
p549
sI550
Vsergio
p550
sI551
Vflorinda,
p551
sI552
Vlois
p552
sI553
Vdante,
p553
sI554
Vmaressa
p554
sI555
Vrobinet
p555
sI556
Vlaural
p556
sI557
Vjena
p557
sI558
Vjeniece
p558
sI559
Vmalva
p559
sI560
Vberchtold
p560
sI561
Vbecki,
p561
sI562
Vannabell
p562
sI563
Vharriett,
p563
sI564
Vadara
p564
sI565
Vjinny
p565
sI566
Vaurelie
p566
sI567
S'clinical'
p567
sI568
Vhally
p568
sI569
Vhappy
p569
sI570
Vbettie
p570
sI571
Vorsa,
p571
sI572
Vpierre
p572
sI573
Vsherye,
p573
sI574
Vignaz
p574
sI575
Vhear
p575
sI576
Vdiena,
p576
sI577
S'221'
p577
sI578
Vreset
p578
sI579
Varabel
p579
sI580
Vvinnie,
p580
sI581
Vemil
p581
sI582
Vtam,
p582
sI583
Vgregg,
p583
sI584
Vtell
p584
sI585
Vjan,
p585
sI586
Vlissy,
p586
sI587
Verda
p587
sI588
Vevangelin
p588
sI589
Vhumbert,
p589
sI590
Valoisia,
p590
sI591
Vbogart
p591
sI592
S'<NO>'
p592
sI593
Voctavius
p593
sI594
Vharvie
p594
sI595
Vcheck
p595
sI596
Vruss,
p596
sI597
Vninetta,
p597
sI598
Vno
p598
sI599
Vvibhu,
p599
sI600
Vroxy,
p600
sI601
Vtrina,
p601
sI602
Vbarnabe,
p602
sI603
Vmary,
p603
sI604
Vfootball
p604
sI605
Vyancey,
p605
sI606
Vlet's
p606
sI607
Vcrystie,
p607
sI608
Vloree
p608
sI609
Vleontyne
p609
sI610
Vdanna,
p610
sI611
Vmerrill,
p611
sI612
Vhervey
p612
sI613
Vtime
p613
sI614
Vcristin
p614
sI615
Vjanette
p615
sI616
Vevelyn
p616
sI617
Vmilt
p617
sI618
Vcharisse,
p618
sI619
Vrod
p619
sI620
Vjanette,
p620
sI621
Vroz
p621
sI622
S'computation'
p622
sI623
Vhelise,
p623
sI624
Vpaulita
p624
sI625
Vgael
p625
sI626
Veverything
p626
sI627
Veda,
p627
sI628
Vnineteen
p628
sI629
Vromonda
p629
sI630
Vshannon,
p630
sI631
Vmandi,
p631
sI632
Vlenette
p632
sI633
Vjeremy,
p633
sI634
Vignacius
p634
sI635
Vshandee,
p635
sI636
Vjohannah,
p636
sI637
Vhenriette
p637
sI638
Vbrandi,
p638
sI639
Vleave
p639
sI640
S'science'
p640
sI641
Vruperta,
p641
sI642
Vkerrin,
p642
sI643
Vcasie,
p643
sI644
Vmalva,
p644
sI645
Vkandace,
p645
sI646
Vcherey
p646
sI647
Vjaymee
p647
sI648
Vkaspar
p648
sI649
Vguinna,
p649
sI650
Vsimeon
p650
sI651
Vkandace
p651
sI652
Vcelestine
p652
sI653
Vroarke
p653
sI654
Varvy
p654
sI655
Veloisa,
p655
sI656
Vcamille,
p656
sI657
Vdavina
p657
sI658
Vannalee
p658
sI659
Vblondell
p659
sI660
Vsig,
p660
sI661
Vgladys
p661
sI662
Vmerlina,
p662
sI663
Vsherry,
p663
sI664
Vclayborn
p664
sI665
Vbenson
p665
sI666
Vkeith,
p666
sI667
Vneville
p667
sI668
Vthirty
p668
sI669
S'institute'
p669
sI670
Vlorrin,
p670
sI671
Vyetty
p671
sI672
Vniall,
p672
sI673
Vprudi
p673
sI674
Vmargot
p674
sI675
Vclarisse,
p675
sI676
Vchurchill
p676
sI677
Vciel
p677
sI678
Vmaryrose,
p678
sI679
Vdidi,
p679
sI680
Vhelise
p680
sI681
Vkissiah
p681
sI682
Vangelo
p682
sI683
Vmatthus,
p683
sI684
Vbartolemo,
p684
sI685
Vstephie
p685
sI686
Variel
p686
sI687
Vbianca,
p687
sI688
Vperi
p688
sI689
Vvisit
p689
sI690
Vnanon,
p690
sI691
Vcory
p691
sI692
Vkassi
p692
sI693
Vwood
p693
sI694
Vregen
p694
sI695
Vkristian
p695
sI696
S'australian'
p696
sI697
Vtruman,
p697
sI698
Vantonius,
p698
sI699
Vlulita
p699
sI700
Vemmy,
p700
sI701
Vfranklyn,
p701
sI702
Vpacifica,
p702
sI703
Vaida,
p703
sI704
Velaina,
p704
sI705
Vertha,
p705
sI706
S'brownless'
p706
sI707
Vlazlo
p707
sI708
Vburl,
p708
sI709
Volive
p709
sI710
Vsue-elle
p710
sI711
Vlyda,
p711
sI712
Vharriette,
p712
sI713
Vangel,
p713
sI714
Vvalli
p714
sI715
Vfawna
p715
sI716
Vconsolata
p716
sI717
Vcharlie,
p717
sI718
Vpavia,
p718
sI719
Vshirline
p719
sI720
S'december'
p720
sI721
Vlucas,
p721
sI722
Vlibby,
p722
sI723
Vcarroll
p723
sI724
Vdennie
p724
sI725
Vcatharine,
p725
sI726
Vheard
p726
sI727
Vemery,
p727
sI728
Vhedda
p728
sI729
Vquiggly,
p729
sI730
Vodette
p730
sI731
Vheddi
p731
sI732
Vclair
p732
sI733
S'sidney'
p733
sI734
Vertha
p734
sI735
Vilene,
p735
sI736
Vmikako
p736
sI737
S'chemical'
p737
sI738
Vtill
p738
sI739
S'sunday'
p739
sI740
Vbarnabe
p740
sI741
Vcoleman
p741
sI742
Vjesselyn,
p742
sI743
Vhalvard
p743
sI744
S'may'
p744
sI745
Vbirthday
p745
sI746
Vgale,
p746
sI747
Vharmon
p747
sI748
Vdevi
p748
sI749
Vgoldia,
p749
sI750
Vnikos,
p750
sI751
Vvita,
p751
sI752
Vso
p752
sI753
Vbenni
p753
sI754
Vmichel
p754
sI755
Vjoana
p755
sI756
Vberkie
p756
sI757
Vrosetta
p757
sI758
Vcliff,
p758
sI759
Vthane
p759
sI760
Vromona
p760
sI761
Vtull
p761
sI762
Vmalvina
p762
sI763
Vselene,
p763
sI764
Vtrudey,
p764
sI765
Vtorr
p765
sI766
Vnettie
p766
sI767
Vtonia
p767
sI768
Vtonie
p768
sI769
Vtucker
p769
sI770
Vanson
p770
sI771
Vhalf
p771
sI772
Vnot
p772
sI773
Vmaggee
p773
sI774
Vbinky
p774
sI775
Vnow
p775
sI776
Vardenia,
p776
sI777
S'hall'
p777
sI778
S'biomolecular'
p778
sI779
S'january'
p779
sI780
Vbrody
p780
sI781
Vdidi
p781
sI782
Vjoane,
p782
sI783
Vleda
p783
sI784
Vtandy
p784
sI785
Vkettie
p785
sI786
Vkarlotte
p786
sI787
Vjeremy
p787
sI788
Vwildon
p788
sI789
Vquarter
p789
sI790
Vcarmela,
p790
sI791
Vem
p791
sI792
S'square'
p792
sI793
Vleanor,
p793
sI794
Vwaneta
p794
sI795
Vkimmo
p795
sI796
Valbum
p796
sI797
Vsybil
p797
sI798
Vemyle,
p798
sI799
Vkenn
p799
sI800
Vroderick,
p800
sI801
Vmohamed,
p801
sI802
Vjinny,
p802
sI803
Vcorrect
p803
sI804
Vbrooks
p804
sI805
Vbella,
p805
sI806
Vajay
p806
sI807
Vyuri
p807
sI808
Vcarl
p808
sI809
Vcara
p809
sI810
Vkeith
p810
sI811
Valeen,
p811
sI812
Vondrea,
p812
sI813
Viseabal
p813
sI814
Vanne-marie
p814
sI815
Vken,
p815
sI816
Vlindsey
p816
sI817
Vplace
p817
sI818
Vorly,
p818
sI819
Vcob,
p819
sI820
Vevangelin,
p820
sI821
Vmerrili
p821
sI822
Vmerrill
p822
sI823
Vdasi,
p823
sI824
Vmercy,
p824
sI825
Vmerrile
p825
sI826
Vone
p826
sI827
Vdiena
p827
sI828
Vnova
p828
sI829
Vcarry
p829
sI830
Vtamara
p830
sI831
Vgeorge
p831
sI832
Vcrysta,
p832
sI833
Vmarice,
p833
sI834
Velden,
p834
sI835
S'2'
sI836
Vjerrilyn
p835
sI837
S'white'
p836
sI838
Valmira
p837
sI839
Vnelie
p838
sI840
Vulrich,
p839
sI841
Vthat
p840
sI842
Vmemo
p841
sI843
S'alan'
p842
sI844
S'11'
p843
sI845
S'10'
p844
sI846
S'13'
p845
sI847
S'12'
p846
sI848
Vhaydon,
p847
sI849
S'14'
p848
sI850
S'17'
p849
sI851
S'16'
p850
sI852
S'19'
p851
sI853
S'18'
p852
sI854
Vrodolphe
p853
sI855
Vteena,
p854
sI856
Vcybelle,
p855
sI857
Vlissy
p856
sI858
S'victorian'
p857
sI859
Vderby,
p858
sI860
Vand
p859
sI861
Vterese,
p860
sI862
Vangel
p861
sI863
Vsal
p862
sI864
Vann
p863
sI865
Vbelinda,
p864
sI866
Vmellisa
p865
sI867
Vadela
p866
sI868
Vdasi
p867
sI869
Vhalimeda
p868
sI870
Vrent
p869
sI871
Vthadeus
p870
sI872
Vroxi,
p871
sI873
Vsal,
p872
sI874
Vabdulkarim
p873
sI875
S'dining'
p874
sI876
Vphillipp
p875
sI877
Vtake
p876
sI878
Vtrixi
p877
sI879
Vhannibal,
p878
sI880
Vmalissa
p879
sI881
Vbegin
p880
sI882
Vmichel,
p881
sI883
S'theatre'
p882
sI884
Vtraci
p883
sI885
Vethelin
p884
sI886
Vsean,
p885
sI887
Vdamien,
p886
sI888
Vbobette
p887
sI889
Vrenae
p888
sI890
Vdavina,
p889
sI891
Varianne,
p890
sI892
Vcorrie
p891
sI893
Vetta,
p892
sI894
Vnancie
p893
sI895
Vminny,
p894
sI896
S'geography'
p895
sI897
Vebeneser
p896
sI898
Vstarlene,
p897
sI899
Vstephannie,
p898
sI900
Voutside
p899
sI901
Vferinand,
p900
sI902
Vgoing
p901
sI903
Vstormi
p902
sI904
Vrobb
p903
sI905
Vrandall,
p904
sI906
Vchantal
p905
sI907
Vyelena
p906
sI908
Vget
p907
sI909
Vjosh,
p908
sI910
Vhailee
p909
sI911
Vnels
p910
sI912
Vbelita
p911
sI913
Vsascha
p912
sI914
Vharriette
p913
sI915
Vdorolisa,
p914
sI916
Vhenriette,
p915
sI917
S'resource'
p916
sI918
Vsharity,
p917
sI919
Vstacie
p918
sI920
Vmorning
p919
sI921
Vjobye
p920
sI922
Vfreeman,
p921
sI923
Vchristalle,
p922
sI924
Vlaraine,
p923
sI925
Vardys
p924
sI926
Vcarole,
p925
sI927
Vdom,
p926
sI928
Vdotti,
p927
sI929
Vdoralia
p928
sI930
S'college'
p929
sI931
Vsean
p930
sI932
Vquiggly
p931
sI933
Verminia,
p932
sI934
Vmugsy,
p933
sI935
Vtimmi,
p934
sI936
Vteena
p935
sI937
S'3'
sI938
Vbrigitta,
p936
sI939
Vkarmen
p937
sI940
Vcathe,
p938
sI941
Vcharlotte,
p939
sI942
Vvictor,
p940
sI943
Vgeraldo,
p941
sI944
Vskyler,
p942
sI945
S'25'
p943
sI946
Vkristal
p944
sI947
Vcarolee
p945
sI948
Vamory
p946
sI949
S'jacobs'
p947
sI950
Velijah
p948
sI951
Velnora,
p949
sI952
Vmariette
p950
sI953
Vviole,
p951
sI954
Vrhona,
p952
sI955
Vkirsten
p953
sI956
Vdudley,
p954
sI957
Vjesselyn
p955
sI958
Vbernette,
p956
sI959
Vtome,
p957
sI960
Vsimeon,
p958
sI961
S'hercus'
p959
sI962
Vkirstyn
p960
sI963
V,
sI964
S'audiology'
p961
sI965
Vselene
p962
sI966
Vnanette
p963
sI967
S'boas'
p964
sI968
Vjeane
p965
sI969
Vlane,
p966
sI970
Vkinna
p967
sI971
Venglebert
p968
sI972
S'arts'
p969
sI973
Vkatlin
p970
sI974
Vhoward
p971
sI975
S'west'
p972
sI976
Vmadelaine
p973
sI977
Vtimmi
p974
sI978
Vmart
p975
sI979
Vmarv
p976
sI980
Vjeane,
p977
sI981
Vkelcey,
p978
sI982
Vmary
p979
sI983
Vshopping
p980
sI984
Vamery
p981
sI985
Vchiquita,
p982
sI986
Vnikos
p983
sI987
Vgiraldo,
p984
sI988
Vjean,
p985
sI989
Vwake
p986
sI990
Vtammi,
p987
sI991
Vruby
p988
sI992
Vglenna,
p989
sI993
Vjanith,
p990
sI994
Vsollie
p991
sI995
Vorelia
p992
sI996
Vnoach,
p993
sI997
Vstanfield,
p994
sI998
Volive,
p995
sI999
Vderrin
p996
sI1000
Vhercule
p997
sI1001
Valdus,
p998
sI1002
Vcandace
p999
sI1003
Vmarcel
p1000
sI1004
Vjanean,
p1001
sI1005
Vloree,
p1002
sI1006
Vpepi
p1003
sI1007
Vdoctor
p1004
sI1008
Vthatch,
p1005
sI1009
Vdasya
p1006
sI1010
Vjaymee,
p1007
sI1011
Vtrip
p1008
sI1012
S'speech'
p1009
sI1013
Vbeilul,
p1010
sI1014
Vmirabella,
p1011
sI1015
Vreminder
p1012
sI1016
Vgiavani,
p1013
sI1017
Vfinish
p1014
sI1018
Vharrie
p1015
sI1019
Vlois,
p1016
sI1020
Vmatilda,
p1017
sI1021
Vgiavani
p1018
sI1022
Vpaulita,
p1019
sI1023
Vsibelle,
p1020
sI1024
Vaurelie,
p1021
sI1025
Vtheater
p1022
sI1026
Vpepillo,
p1023
sI1027
Vmargarete
p1024
sI1028
Vjenda
p1025
sI1029
Vbobbie,
p1026
sI1030
Vcrissie,
p1027
sI1031
Vnoam
p1028
sI1032
Vearl,
p1029
sI1033
Vrobina
p1030
sI1034
Vtobe
p1031
sI1035
Vcasie
p1032
sI1036
S'baldwin'
p1033
sI1037
Vleanne,
p1034
sI1038
Vethyl
p1035
sI1039
Vruby,
p1036
sI1040
Vsixteen
p1037
sI1041
Valthea,
p1038
sI1042
Vbryn
p1039
sI1043
Vtwyla
p1040
sI1044
Vgoddard,
p1041
sI1045
Vtonya
p1042
sI1046
Vsinclare,
p1043
sI1047
S'4'
sI1048
S'mcdonell'
p1044
sI1049
Vbernardo
p1045
sI1050
Vselma
p1046
sI1051
Vroddy,
p1047
sI1052
Vmerrielle
p1048
sI1053
Vregan,
p1049
sI1054
Vtheophyllus,
p1050
sI1055
Vrebecca
p1051
sI1056
Vorelia,
p1052
sI1057
Vdianemarie
p1053
sI1058
Vhedda,
p1054
sI1059
Vdirk,
p1055
sI1060
Vmartina,
p1056
sI1061
Vregen,
p1057
sI1062
Vleonardo,
p1058
sI1063
Vmorena
p1059
sI1064
Vaurea
p1060
sI1065
Vmelisande
p1061
sI1066
Vtwelve
p1062
sI1067
S'baillieu'
p1063
sI1068
Vkarlotte,
p1064
sI1069
Veddie
p1065
sI1070
Vzsazsa
p1066
sI1071
Vzarah
p1067
sI1072
Vguillermo
p1068
sI1073
Vkelcey
p1069
sI1074
Vjoao
p1070
sI1075
Vcoral,
p1071
sI1076
Vcharleen
p1072
sI1077
Vnoon
p1073
sI1078
Vdudley
p1074
sI1079
Vcarilyn
p1075
sI1080
Vmerrili,
p1076
sI1081
Vephraim
p1077
sI1082
Vtrudey
p1078
sI1083
Vlorita
p1079
sI1084
S'business'
p1080
sI1085
Vchloris
p1081
sI1086
Vcristin,
p1082
sI1087
Vjennette
p1083
sI1088
Vleighton,
p1084
sI1089
Vbaillie,
p1085
sI1090
Vcoreen,
p1086
sI1091
Vzebulen,
p1087
sI1092
Vcherida,
p1088
sI1093
Vok
p1089
sI1094
S'of'
p1090
sI1095
Vcristen,
p1091
sI1096
Vniall
p1092
sI1097
S'barry'
p1093
sI1098
Vlynna,
p1094
sI1099
Vkalie
p1095
sI1100
Vcarey
p1096
sI1101
Vcrissy
p1097
sI1102
Vneil
p1098
sI1103
Vmaryjo,
p1099
sI1104
Vtrip,
p1100
sI1105
S'area'
p1101
sI1106
Vronald,
p1102
sI1107
Varel
p1103
sI1108
Vthere
p1104
sI1109
Vstart
p1105
sI1110
Vclaybourne,
p1106
sI1111
Vmissy
p1107
sI1112
Vadrian,
p1108
sI1113
Vkacie
p1109
sI1114
Vaida
p1110
sI1115
Vrorie
p1111
sI1116
Vnewton,
p1112
sI1117
Vsuzette
p1113
sI1118
Vdena,
p1114
sI1119
Vnananne,
p1115
sI1120
Vwith
p1116
sI1121
S'october'
p1117
sI1122
Vhiro
p1118
sI1123
Vlorelei
p1119
sI1124
Vbessy
p1120
sI1125
Vmarna
p1121
sI1126
Vshauna
p1122
sI1127
Vlaverna
p1123
sI1128
Vruss
p1124
sI1129
Vminny
p1125
sI1130
Vapollo,
p1126
sI1131
Vgiffard
p1127
sI1132
Vestel,
p1128
sI1133
Vcreat
p1129
sI1134
Vania,
p1130
sI1135
Vam
p1131
sI1136
Vorsa
p1132
sI1137
Vas
p1133
sI1138
Vlari,
p1134
sI1139
Vat
p1135
sI1140
Vguillermo,
p1136
sI1141
Vzsazsa,
p1137
sI1142
Vmargot,
p1138
sI1143
Vgenny
p1139
sI1144
Vagain
p1140
sI1145
Vthor,
p1141
sI1146
Vvickie
p1142
sI1147
Vmalvina,
p1143
sI1148
Vlenette,
p1144
sI1149
S'5'
sI1150
Vcarli,
p1145
sI1151
Vgenna
p1146
sI1152
Vyou
p1147
sI1153
S'hollyock'
p1148
sI1154
Vbrandi
p1149
sI1155
Vrhett
p1150
sI1156
Vkellen,
p1151
sI1157
Vnichol
p1152
sI1158
Vbrenna,
p1153
sI1159
Vrenae,
p1154
sI1160
Vdorisa
p1155
sI1161
Vberenice
p1156
sI1162
S'building'
p1157
sI1163
Vtamara,
p1158
sI1164
Vtwyla,
p1159
sI1165
Vpadraig
p1160
sI1166
Vpris,
p1161
sI1167
Valvina
p1162
sI1168
Vjerrilyn,
p1163
sI1169
Varianne
p1164
sI1170
Vsuzette,
p1165
sI1171
Vcarlie
p1166
sI1172
Vcleva,
p1167
sI1173
Vjeromy
p1168
sI1174
Vforget
p1169
sI1175
Vbilli,
p1170
sI1176
Vali
p1171
sI1177
Vismail
p1172
sI1178
Vgael,
p1173
sI1179
Vlilli,
p1174
sI1180
Vboris,
p1175
sI1181
Vshani,
p1176
sI1182
Verminie
p1177
sI1183
Vbaillie
p1178
sI1184
Vcarlen,
p1179
sI1185
Vardenia
p1180
sI1186
Vto
p1181
sI1187
S'program'
p1182
sI1188
Vnorm
p1183
sI1189
S'7'
sI1190
Vdevin,
p1184
sI1191
Vfar
p1185
sI1192
Vemil,
p1186
sI1193
Vdonetta
p1187
sI1194
Vsephira
p1188
sI1195
Vfrederik
p1189
sI1196
Vrog
p1190
sI1197
Velene
p1191
sI1198
Vtrixi,
p1192
sI1199
Valma
p1193
sI1200
Vantone
p1194
sI1201
Vclaudie,
p1195
sI1202
Vjehu,
p1196
sI1203
Valbert,
p1197
sI1204
Vdouglis,
p1198
sI1205
Vmorgan,
p1199
sI1206
Vlise
p1200
sI1207
Vmaggie
p1201
sI1208
Vchrist,
p1202
sI1209
Vten
p1203
sI1210
Vblaire
p1204
sI1211
Vpast
p1205
sI1212
S'design'
p1206
sI1213
Valphonse,
p1207
sI1214
Vdasya,
p1208
sI1215
Vneddy
p1209
sI1216
Vwhat
p1210
sI1217
Vblinni,
p1211
sI1218
Vingemar,
p1212
sI1219
Vnady,
p1213
sI1220
Vkarna
p1214
sI1221
S'microbiology'
p1215
sI1222
Vnixie,
p1216
sI1223
Vcelestyn,
p1217
sI1224
Vstormi,
p1218
sI1225
Varlie
p1219
sI1226
Vmavis,
p1220
sI1227
Vabdulkarim,
p1221
sI1228
Vsybilla
p1222
sI1229
Vcharmian,
p1223
sI1230
Vhours
p1224
sI1231
S'street,'
p1225
sI1232
Vangelo,
p1226
sI1233
S'november'
p1227
sI1234
Vrikki,
p1228
sI1235
Vcathe
p1229
sI1236
Vrori
p1230
sI1237
Vkellina,
p1231
sI1238
Verminia
p1232
sI1239
Vfergus
p1233
sI1240
Vrora
p1234
sI1241
Vagatha
p1235
sI1242
Vhettie,
p1236
sI1243
Vcristen
p1237
sI1244
Vconstance,
p1238
sI1245
Vvic
p1239
sI1246
Vshirline,
p1240
sI1247
Vgizela
p1241
sI1248
Vcleland,
p1242
sI1249
Vtymon,
p1243
sI1250
Vabdel
p1244
sI1251
Vlyda
p1245
sI1252
Vbettie,
p1246
sI1253
Vtakes
p1247
sI1254
Vkittie
p1248
sI1255
Vtonie,
p1249
sI1256
Vkirsten,
p1250
sI1257
Vtwo
p1251
sI1258
Volle,
p1252
sI1259
S'6'
sI1260
Vlora,
p1253
sI1261
Vmorton,
p1254
sI1262
Vlaverna,
p1255
sI1263
Vbrandea
p1256
sI1264
Vpatty,
p1257
sI1265
Vfreda
p1258
sI1266
Vkarlee,
p1259
sI1267
Vdion
p1260
sI1268
Vvi,
p1261
sI1269
Vlazaro
p1262
sI1270
Vkristos
p1263
sI1271
Vjefry,
p1264
sI1272
Vtown
p1265
sI1273
Vaharon,
p1266
sI1274
Vhour
p1267
sI1275
Vdamien
p1268
sI1276
Vwaneta,
p1269
sI1277
Vwilona,
p1270
sI1278
Vtorr,
p1271
sI1279
Vberty
p1272
sI1280
Vnine
p1273
sI1281
Valix,
p1274
sI1282
Vmorgan
p1275
sI1283
Vmargalo,
p1276
sI1284
Vleola
p1277
sI1285
Vmarkos,
p1278
sI1286
Vgonzalo,
p1279
sI1287
Vhoward,
p1280
sI1288
Vkelsey,
p1281
sI1289
Vodie,
p1282
sI1290
Vcherin
p1283
sI1291
Vbradly,
p1284
sI1292
Vcherie
p1285
sI1293
Vrozanna,
p1286
sI1294
Vclint
p1287
sI1295
Vdave,
p1288
sI1296
Vkalie,
p1289
sI1297
Vfawna,
p1290
sI1298
Vdanie,
p1291
sI1299
Vgisele
p1292
sI1300
Vchurchill,
p1293
sI1301
Vkarlotta
p1294
sI1302
Vsidoney
p1295
sI1303
Vchristalle
p1296
sI1304
Vobadiah
p1297
sI1305
Vcorrie,
p1298
sI1306
Vandrzej,
p1299
sI1307
S'dow'
p1300
sI1308
Vparwane,
p1301
sI1309
Voralle,
p1302
sI1310
Vsven
p1303
sI1311
Vadela,
p1304
sI1312
Vrosella,
p1305
sI1313
S'faculty'
p1306
sI1314
Vulrike
p1307
sI1315
Vmalena
p1308
sI1316
Va
sI1317
Vki,
p1309
sI1318
Vsusan
p1310
sI1319
Vmarice
p1311
sI1320
Vmarlow
p1312
sI1321
Vkirstie
p1313
sI1322
Vpay
p1314
sI1323
Vshani
p1315
sI1324
Vsascha,
p1316
sI1325
Vthat's
p1317
sI1326
Vbrena,
p1318
sI1327
Vleigh
p1319
sI1328
Vdon't
p1320
sI1329
S'september'
p1321
sI1330
Vmortimer,
p1322
sI1331
Vchicky
p1323
sI1332
Vsusan,
p1324
sI1333
Vcarmela
p1325
sI1334
Veadith
p1326
sI1335
Vcarmelina
p1327
sI1336
Vkellina
p1328
sI1337
S'24'
p1329
sI1338
Vleanne
p1330
sI1339
S'26'
p1331
sI1340
S'27'
p1332
sI1341
S'20'
p1333
sI1342
S'21'
p1334
sI1343
S'22'
p1335
sI1344
S'23'
p1336
sI1345
Vabelard
p1337
sI1346
S'28'
p1338
sI1347
S'29'
p1339
sI1348
Valli
p1340
sI1349
Vkassey,
p1341
sI1350
Vpavia
p1342
sI1351
Visaac
p1343
sI1352
Vlottie,
p1344
sI1353
Vteodora,
p1345
sI1354
Varlie,
p1346
sI1355
Vevening
p1347
sI1356
Vreturn
p1348
sI1357
Vbartolemo
p1349
sI1358
Vsergio,
p1350
sI1359
Vbernette
p1351
sI1360
Vrozanne
p1352
sI1361
Vrozanna
p1353
sI1362
Vodie
p1354
sI1363
Vwally
p1355
sI1364
Vconstantine,
p1356
sI1365
Vkerrin
p1357
sI1366
Vcasia
p1358
sI1367
Vcollette,
p1359
sI1368
Velric,
p1360
sI1369
Vricard,
p1361
sI1370
Vsib,
p1362
sI1371
Vveronike,
p1363
sI1372
Vkaleena,
p1364
sI1373
Vabdel,
p1365
sI1374
Vricki,
p1366
sI1375
Voral,
p1367
sI1376
S'house'
p1368
sI1377
Vhersch,
p1369
sI1378
Vkeren,
p1370
sI1379
Vboyce,
p1371
sI1380
Vvilma,
p1372
sI1381
Vgilberte
p1373
sI1382
Vrandolph
p1374
sI1383
Vgus
p1375
sI1384
Vflower
p1376
sI1385
S'psychology'
p1377
sI1386
Vsephira,
p1378
sI1387
S'electronic'
p1379
sI1388
Vmiguelita
p1380
sI1389
S'research'
p1381
sI1390
Valvina,
p1382
sI1391
S'health'
p1383
sI1392
Vebonee
p1384
sI1393
Vmeira
p1385
sI1394
Vkeeley,
p1386
sI1395
Vconstantin
p1387
sI1396
Vjeremiah
p1388
sI1397
Vchriss,
p1389
sI1398
S'friday'
p1390
sI1399
Vrickie
p1391
sI1400
Vmilicent,
p1392
sI1401
Vrikki
p1393
sI1402
Vdirk
p1394
sI1403
Vrandall
p1395
sI1404
S'laby'
p1396
sI1405
Vbeginning
p1397
sI1406
Vandrzej
p1398
sI1407
Vbrewer,
p1399
sI1408
Vwally,
p1400
sI1409
Vlavinie
p1401
sI1410
Vroddie
p1402
sI1411
Vobadiah,
p1403
sI1412
Vnorm,
p1404
sI1413
Vrog,
p1405
sI1414
Velden
p1406
sI1415
Vephraim,
p1407
sI1416
Vdone
p1408
sI1417
Vpascal,
p1409
sI1418
Vevonne
p1410
sI1419
Vmelva,
p1411
sI1420
Vtwenty
p1412
sI1421
Vnomi
p1413
sI1422
Vleighton
p1414
sI1423
Vskipp,
p1415
sI1424
Vmyrtia,
p1416
sI1425
Vkarry,
p1417
sI1426
Vellen,
p1418
sI1427
Vblaire,
p1419
sI1428
Vaudrye
p1420
sI1429
Vstephannie
p1421
sI1430
Vchicky,
p1422
sI1431
Vleeann
p1423
sI1432
Vernestine
p1424
sI1433
Vweber,
p1425
sI1434
Vcele,
p1426
sI1435
Vfox,
p1427
sI1436
Vkaron
p1428
sI1437
Vcarleigh,
p1429
sI1438
Vblondell,
p1430
sI1439
Vmerrielle,
p1431
sI1440
Vgreg
p1432
sI1441
Vdani
p1433
sI1442
Vshauna,
p1434
sI1443
Vjefry
p1435
sI1444
Vstefan,
p1436
sI1445
Vagatha,
p1437
sI1446
Vemlyn
p1438
sI1447
Vcharlotte
p1439
sI1448
Vcarolee,
p1440
sI1449
Vsanford,
p1441
sI1450
Vnellie,
p1442
sI1451
Vgale
p1443
sI1452
Vchandal
p1444
sI1453
Vsollie,
p1445
sI1454
Vsawyere
p1446
sI1455
Vmelva
p1447
sI1456
Vmoise
p1448
sI1457
Vbevvy,
p1449
sI1458
S'cardigan'
p1450
sI1459
Vshelby
p1451
sI1460
Vlorettalorna,
p1452
sI1461
Vjuana,
p1453
sI1462
Vcresa,
p1454
sI1463
Valso
p1455
sI1464
Vkaleena
p1456
sI1465
Vsebastiano
p1457
sI1466
Vclea,
p1458
sI1467
Vbobbie
p1459
sI1468
Vemmaline
p1460
sI1469
Vorton
p1461
sI1470
Vsherry
p1462
sI1471
Vemerson,
p1463
sI1472
Vveronike
p1464
sI1473
Vkendal
p1465
sI1474
Vmirella
p1466
sI1475
Vcharleen,
p1467
sI1476
Vderrin,
p1468
sI1477
Vbrandea,
p1469
sI1478
Vsawyer,
p1470
sI1479
Vroarke,
p1471
sI1480
Vrosetta,
p1472
sI1481
Vnova,
p1473
sI1482
S'services'
p1474
sI1483
Vsebastien,
p1475
sI1484
Vjulius,
p1476
sI1485
Vsibyl
p1477
sI1486
Vki
p1478
sI1487
Vhumbert
p1479
sI1488
Vmegan,
p1480
sI1489
S'physics'
p1481
sI1490
S'thomas'
p1482
sI1491
Vvinnie
p1483
sI1492
Vgizela,
p1484
sI1493
Vvalli,
p1485
sI1494
Vmadelyn,
p1486
sI1495
Vcarlen
p1487
sI1496
Vleandra
p1488
sI1497
Vtheophyllus
p1489
sI1498
Vkatharina,
p1490
sI1499
Vfine
p1491
sI1500
Vmoise,
p1492
sI1501
Vrosella
p1493
sI1502
Vchiquita
p1494
sI1503
Vbelle,
p1495
sI1504
Vuta,
p1496
sI1505
Vheloise,
p1497
sI1506
S'8'
sI1507
Vluis
p1498
sI1508
Vdarwin
p1499
sI1509
Vnickie
p1500
sI1510
Vvinni,
p1501
sI1511
Vlorettalorna
p1502
sI1512
S'bouverie'
p1503
sI1513
Vcele
p1504
sI1514
Vmarv,
p1505
sI1515
Vleontyne,
p1506
sI1516
Vjeanne
p1507
sI1517
Vsaundra,
p1508
sI1518
Vhewett,
p1509
sI1519
Vkarna,
p1510
sI1520
Vmarleah
p1511
sI1521
Vflorette
p1512
sI1522
Vjill,
p1513
sI1523
Vdante
p1514
sI1524
Vrinaldo
p1515
sI1525
Vmerola,
p1516
sI1526
Varyn
p1517
sI1527
Vjacquelyn,
p1518
sI1528
Valdus
p1519
sI1529
Vjena,
p1520
sI1530
Vfiorenze
p1521
sI1531
Vomar
p1522
sI1532
Vseventeen
p1523
sI1533
Vset
p1524
sI1534
S'priestley'
p1525
sI1535
Vermina
p1526
sI1536
Vallis
p1527
sI1537
Vbryn,
p1528
sI1538
Vmaximilian,
p1529
sI1539
Vfreda,
p1530
sI1540
Vsee
p1531
sI1541
Vmaribeth,
p1532
sI1542
Vanatola,
p1533
sI1543
Vare
p1534
sI1544
Vblinny,
p1535
sI1545
Vconrad,
p1536
sI1546
Vallie
p1537
sI1547
Vernestine,
p1538
sI1548
Vrodger,
p1539
sI1549
Vplease
p1540
sI1550
Vmarcellina,
p1541
sI1551
Vlorelle,
p1542
sI1552
Vmelisande,
p1543
sI1553
Vbogart,
p1544
sI1554
Vmailbox
p1545
sI1555
Vcatharine
p1546
sI1556
Valli,
p1547
sI1557
Vmilissent,
p1548
sI1558
Vreta,
p1549
sI1559
Vwater
p1550
sI1560
S'c'
sI1561
Vlast
p1551
sI1562
Vrestaurant
p1552
sI1563
Vyelena,
p1553
sI1564
Vmarleah,
p1554
sI1565
Vthor
p1555
sI1566
Vleanor
p1556
sI1567
Vedythe
p1557
sI1568
Vbaily,
p1558
sI1569
Vpatty
p1559
sI1570
Vklarrisa
p1560
sI1571
Vcaroljean
p1561
sI1572
Vtown,
p1562
sI1573
Vjeff
p1563
sI1574
Vbinny
p1564
sI1575
Vbela
p1565
sI1576
Volle
p1566
sI1577
S'community'
p1567
sI1578
Vpm
p1568
sI1579
Vskipp
p1569
sI1580
Vnels,
p1570
sI1581
Vsammy
p1571
sI1582
Vvan,
p1572
sI1583
Vdevin
p1573
sI1584
Vreta
p1574
sI1585
Varel,
p1575
sI1586
S'publishing'
p1576
sI1587
Vall
p1577
sI1588
Vchariot,
p1578
sI1589
Vcreate
p1579
sI1590
Vchange
p1580
sI1591
Vcollected
p1581
sI1592
Vmaggy,
p1582
sI1593
Vcarl,
p1583
sI1594
Vmeeting
p1584
sI1595
Vdonetta,
p1585
sI1596
Vkathy
p1586
sI1597
Vrogers,
p1587
sI1598
Vflight
p1588
sI1599
Vcarroll,
p1589
sI1600
S'counselling'
p1590
sI1601
Vlulu
p1591
sI1602
Vdennie,
p1592
sI1603
Vleo,
p1593
sI1604
S'dulcie'
p1594
sI1605
Vsidoney,
p1595
sI1606
Vkathi
p1596
sI1607
Vwhitney
p1597
sI1608
Vclaybourne
p1598
sI1609
Vlegra
p1599
sI1610
Vplants
p1600
sI1611
Vdevi,
p1601
sI1612
Vmadella
p1602
sI1613
Vmatch
p1603
sI1614
Vardys,
p1604
sI1615
Vjulius
p1605
sI1616
Vclarence,
p1606
sI1617
Vlynette
p1607
sI1618
Vdarrell
p1608
sI1619
Vric
p1609
sI1620
Vquillan,
p1610
sI1621
Vreggy,
p1611
sI1622
Vestel
p1612
sI1623
Vondrea
p1613
sI1624
Vviole
p1614
sI1625
Vvaclav
p1615
sI1626
Vbrodie,
p1616
sI1627
S'9'
sI1628
Vbobine,
p1617
sI1629
Vanatol
p1618
sI1630
Vday
p1619
sI1631
Vamory,
p1620
sI1632
Vwilone
p1621
sI1633
Vmonika,
p1622
sI1634
Vwilona
p1623
sI1635
Vmerissa,
p1624
sI1636
Vsibyl,
p1625
sI1637
Vkristal,
p1626
sI1638
Vfanni,
p1627
sI1639
Vdarrel,
p1628
sI1640
Vjanean
p1629
sI1641
Vmavis
p1630
sI1642
Verastus,
p1631
sI1643
Vgavra
p1632
sI1644
Verminie,
p1633
sI1645
Vdaren
p1634
sI1646
Vreginald
p1635
sI1647
Vgodfry,
p1636
sI1648
Vflorian
p1637
sI1649
Vsalvatore
p1638
sI1650
S'chaplains'
p1639
sI1651
Vfive
p1640
sI1652
S'chemistry'
p1641
sI1653
Vleone
p1642
sI1654
Vantonie,
p1643
sI1655
Vrinaldo,
p1644
sI1656
Vmeta,
p1645
sI1657
Vquarters
p1646
sI1658
Vbancroft
p1647
sI1659
Vlancelot,
p1648
sI1660
Vclementia,
p1649
sI1661
Vsheena,
p1650
sI1662
Verika,
p1651
sI1663
Vtoma,
p1652
sI1664
Vmyrtia
p1653
sI1665
Vmoria,
p1654
sI1666
Vgrier,
p1655
sI1667
Vstacie,
p1656
sI1668
Vlindsy,
p1657
sI1669
Vandria
p1658
sI1670
Vmelloney,
p1659
sI1671
Vlocation
p1660
sI1672
Vtillie
p1661
sI1673
Vmarco
p1662
sI1674
S'march'
p1663
sI1675
Vannalyse
p1664
sI1676
Vhercule,
p1665
sI1677
Vclyde,
p1666
sI1678
Vprudi,
p1667
sI1679
Viago,
p1668
sI1680
Vmonika
p1669
sI1681
Vnanette,
p1670
sI1682
Vcalypso
p1671
sI1683
Vadara,
p1672
sI1684
Vdarrell,
p1673
sI1685
Vcollect
p1674
sI1686
Vcara,
p1675
sI1687
Vwaylin
p1676
sI1688
Vulrich
p1677
sI1689
S'mathematical'
p1678
sI1690
S'doherty'
p1679
sI1691
Vchantalle
p1680
sI1692
Vcaroleen
p1681
sI1693
Vbrena
p1682
sI1694
Vsome
p1683
sI1695
Vback
p1684
sI1696
Vyuri,
p1685
sI1697
Vleone,
p1686
sI1698
Valphonse
p1687
sI1699
Vgracie
p1688
sI1700
Vpetronille
p1689
sI1701
S'thursday'
p1690
sI1702
S'veterinary'
p1691
sI1703
Vlorraine
p1692
sI1704
Vjeniece,
p1693
sI1705
Vmarcellina
p1694
sI1706
Vlari
p1695
sI1707
Vpeg
p1696
sI1708
Vkarmen,
p1697
sI1709
Vbe
p1698
sI1710
Vdanya
p1699
sI1711
Vtremayne,
p1700
sI1712
Vkelsey
p1701
sI1713
Vorly
p1702
sI1714
Vmikako,
p1703
sI1715
Vlasts
p1704
sI1716
Vglorianna,
p1705
sI1717
Vmarcy,
p1706
sI1718
Vby
p1707
sI1719
Vkacie,
p1708
sI1720
Vbrody,
p1709
sI1721
Vconrad
p1710
sI1722
Vshina
p1711
sI1723
S'melbourne'
p1712
sI1724
Vann,
p1713
sI1725
Vcatlee
p1714
sI1726
Vsawyere,
p1715
sI1727
Vdarbie,
p1716
sI1728
Vjoya,
p1717
sI1729
S'block'
p1718
sI1730
Vwinnie,
p1719
sI1731
Vmargalo
p1720
sI1732
Vtobe,
p1721
sI1733
Vdylan,
p1722
sI1734
Vsven,
p1723
sI1735
Vjamima
p1724
sI1736
Vulrica,
p1725
sI1737
Vchloris,
p1726
sI1738
Vjohnathon
p1727
sI1739
Van
p1728
sI1740
Vjanine,
p1729
sI1741
Vboyd
p1730
sI1742
Vbaird,
p1731
sI1743
Vkassi,
p1732
sI1744
Vvibhu
p1733
sI1745
Vdaloris
p1734
sI1746
Vandria,
p1735
sI1747
Vuta
p1736
sI1748
Vkellie
p1737
sI1749
Vdoralia,
p1738
sI1750
Vup
p1739
sI1751
Vus
p1740
sI1752
Volenka
p1741
sI1753
S'medical'
p1742
sI1754
Vwestleigh,
p1743
sI1755
Vaudrye,
p1744
sI1756
Vginnie
p1745
sI1757
Vscarlet
p1746
sI1758
S'engineering'
p1747
sI1759
Vlilias,
p1748
sI1760
Vcristine
p1749
sI1761
Vmadella,
p1750
sI1762
Vsashenka,
p1751
sI1763
Vannalyse,
p1752
sI1764
Vlurleen
p1753
sI1765
Vneil,
p1754
sI1766
Vemmalynn,
p1755
sI1767
Vvaclav,
p1756
sI1768
Vvic,
p1757
sI1769
Vyigal
p1758
sI1770
Vgiffard,
p1759
sI1771
Vgre
p1760
sI1772
S'electrical'
p1761
sI1773
Vellen
p1762
sI1774
S'department'
p1763
sI1775
Vmerrile,
p1764
sI1776
Vsaundra
p1765
sI1777
Vklarrisa,
p1766
sI1778
Vmerlina
p1767
sI1779
Vbianca
p1768
sI1780
Vximenez
p1769
sI1781
Vlane
p1770
sI1782
Vgwenni,
p1771
sI1783
Vvick
p1772
sI1784
Vlazaro,
p1773
sI1785
Vsawyer
p1774
sI1786
Vfrederik,
p1775
sI1787
Vrebecca,
p1776
sI1788
Vashton
p1777
sI1789
Vhello
p1778
sI1790
Vbernardo,
p1779
sI1791
Veda
p1780
sI1792
Vhappy,
p1781
sI1793
Vede
p1782
sI1794
Vnichol,
p1783
sI1795
Vcynthia
p1784
sI1796
Vcarrie,
p1785
sI1797
Vmallorie,
p1786
sI1798
Vkristian,
p1787
sI1799
Vjenda,
p1788
sI1800
Vgo
p1789
sI1801
Valmira,
p1790
sI1802
Vteodora
p1791
sI1803
Vkimmo,
p1792
sI1804
Vdulsea,
p1793
sI1805
Vmarylin,
p1794
sI1806
Vlilli
p1795
sI1807
Voclock
p1796
sI1808
S'kwong'
p1797
sI1809
Vjakob
p1798
sI1810
Veloisa
p1799
sI1811
Veloise
p1800
sI1812
Vmaiga
p1801
sI1813
Vmadelaine,
p1802
sI1814
Vclem,
p1803
sI1815
Vwhitney,
p1804
sI1816
Vemyle
p1805
sI1817
Vlibby
p1806
sI1818
Vgenna,
p1807
sI1819
Volaf
p1808
sI1820
Volag
p1809
sI1821
Vscarlet,
p1810
sI1822
Vgwendolyn,
p1811
sI1823
Vtry
p1812
sI1824
Vcherie,
p1813
sI1825
Vjamima,
p1814
sI1826
Vmichaella,
p1815
sI1827
Vjean-christophe,
p1816
sI1828
Vleonardo
p1817
sI1829
Vconsolata,
p1818
sI1830
Vclaudie
p1819
sI1831
Vbary,
p1820
sI1832
Vcarli
p1821
sI1833
Vpris
p1822
sI1834
Vvictor
p1823
sI1835
Vmaryjo
p1824
sI1836
Vginni
p1825
sI1837
Vorion,
p1826
sI1838
Vignacius,
p1827
sI1839
Vstephani,
p1828
sI1840
Vletta
p1829
sI1841
Vquillan
p1830
sI1842
Vfranklyn
p1831
sI1843
Vexercise
p1832
sI1844
Vpeggi
p1833
sI1845
S'lee'
p1834
sI1846
Vdanyelle,
p1835
sI1847
Vcarlie,
p1836
sI1848
Vlaraine
p1837
sI1849
Vtruda,
p1838
sI1850
Vethelin,
p1839
sI1851
Vanjela
p1840
sI1852
S'safer'
p1841
sI1853
Vfifteen
p1842
sI1854
Vjakob,
p1843
sI1855
Vgrethel,
p1844
sI1856
Velnora
p1845
sI1857
Vvickie,
p1846
sI1858
Vammamaria,
p1847
sI1859
Vbearnard,
p1848
sI1860
Vmicky,
p1849
sI1861
Vmirella,
p1850
sI1862
Vderby
p1851
sI1863
Vkaspar,
p1852
sI1864
Vbarrie
p1853
sI1865
Vmanny
p1854
sI1866
Verastus
p1855
sI1867
Vjoceline,
p1856
sI1868
Vdeny,
p1857
sI1869
Vgera
p1858
sI1870
Vfrom
p1859
sI1871
Vjeromy,
p1860
sI1872
Vninetta
p1861
sI1873
S'next'
p1862
sI1874
Veleven
p1863
sI1875
Vemeline
p1864
sI1876
Vreynold
p1865
sI1877
Vdenys
p1866
sI1878
Von
p1867
sI1879
Vcorey,
p1868
sI1880
Vdidn't
p1869
sI1881
Vcrissie
p1870
sI1882
Vthatch
p1871
sI1883
Vconnie
p1872
sI1884
Vkathlene,
p1873
sI1885
S'this'
p1874
sI1886
Valia
p1875
sI1887
Vram
p1876
sI1888
Valix
p1877
sI1889
Vemerson
p1878
sI1890
Varyn,
p1879
sI1891
Vcrista,
p1880
sI1892
Vterrie,
p1881
sI1893
Verda,
p1882
sI1894
Vetta
p1883
sI1895
Vkyrstin,
p1884
sI1896
Vgeorgeta,
p1885
sI1897
Vetty
p1886
sI1898
Vtab
p1887
sI1899
Vmilicent
p1888
sI1900
Vtam
p1889
sI1901
Vjehu
p1890
sI1902
Vpadraig,
p1891
sI1903
Vlenore
p1892
sI1904
Vbernadene
p1893
sI1905
Vkial
p1894
sI1906
Vkiah
p1895
sI1907
Vquincey,
p1896
sI1908
Vricard
p1897
sI1909
Vpepillo
p1898
sI1910
Vcamille
p1899
sI1911
Vsib
p1900
sI1912
Vsig
p1901
sI1913
Vmartin,
p1902
sI1914
Vgladis,
p1903
sI1915
Vclair,
p1904
sI1916
Vreynold,
p1905
sI1917
Vrod,
p1906
sI1918
Vfran
p1907
sI1919
Vkristel
p1908
sI1920
Vkristen,
p1909
sI1921
Vronald
p1910
sI1922
Vkenn,
p1911
sI1923
Vstandford
p1912
sI1924
Vdaloris,
p1913
sI1925
Vbevvy
p1914
sI1926
Vemelda
p1915
sI1927
Varvy,
p1916
sI1928
Vignaz,
p1917
sI1929
Vyonina,
p1918
sI1930
Vmartina
p1919
sI1931
Vemeline,
p1920
sI1932
Vissy
p1921
sI1933
Vchristie,
p1922
sI1934
Vclarissa
p1923
sI1935
Vsix
p1924
sI1936
Vclarisse
p1925
sI1937
Vmoria
p1926
sI1938
Voral
p1927
sI1939
Vbinny,
p1928
sI1940
Vrutter
p1929
sI1941
Vjoanne
p1930
sI1942
Vedith,
p1931
sI1943
Vdaren,
p1932
sI1944
S'agricultural'
p1933
sI1945
Vworthington
p1934
sI1946
S'1'
sI1947
Vtonia,
p1935
sI1948
Vantonius
p1936
sI1949
S'biomedical'
p1937
sI1950
Vguillemette,
p1938
sI1951
Vrabi
p1939
sI1952
Vdorothy,
p1940
sI1953
Vcarole
p1941
sI1954
Vselma,
p1942
sI1955
Vfreeman
p1943
sI1956
Vgusella,
p1944
sI1957
Vevelyn,
p1945
sI1958
S'practice'
p1946
sI1959
S'newman'
p1947
sI1960
Vnady
p1948
sI1961
Vrori,
p1949
sI1962
Vlenore,
p1950
sI1963
Vbilli
p1951
sI1964
S'february'
p1952
sI1965
Vdanyette
p1953
sI1966
Vwilone,
p1954
sI1967
S'university'
p1955
sI1968
Vboyd,
p1956
sI1969
Vkissiah,
p1957
sI1970
Vstandford,
p1958
sI1971
Vtray
p1959
sI1972
Vquintin
p1960
sI1973
Vjean-lou
p1961
sI1974
Vkatlin,
p1962
sI1975
Vkinna,
p1963
sI1976
Vteodoor
p1964
sI1977
Vfran,
p1965
sI1978
Vtull,
p1966
sI1979
Vbooks
p1967
sI1980
Vthirteen
p1968
sI1981
Vbrodie
p1969
sI1982
Vmorton
p1970
sI1983
S'sexual'
p1971
sI1984
Vshannon
p1972
sI1985
Vpepi,
p1973
sI1986
Vbutch
p1974
sI1987
Vemlyn,
p1975
sI1988
Vnena,
p1976
sI1989
Viseabal,
p1977
sI1990
Vreboot
p1978
sI1991
Vbancroft,
p1979
sI1992
Vhervey,
p1980
sI1993
Vmarcel,
p1981
sI1994
Vdanie
p1982
sI1995
S'lecture'
p1983
sI1996
Vallie,
p1984
sI1997
Vevonne,
p1985
sI1998
Vricki
p1986
sI1999
S'harold'
p1987
sI2000
Vgonzalo
p1988
sI2001
Vharriett
p1989
sI2002
Vallis,
p1990
sI2003
Vlorelle
p1991
sI2004
Vfourteen
p1992
sI2005
Vjill
p1993
sI2006
Vashleigh,
p1994
sI2007
Venrica,
p1995
sI2008
Vrozanne,
p1996
sI2009
Vdavie
p1997
sI2010
Vberkley,
p1998
sI2011
Vlindsy
p1999
sI2012
Vadrian
p2000
sI2013
Vrick,
p2001
sI2014
Vcherida
p2002
sI2015
Vjennilee
p2003
sI2016
Vdani,
p2004
sI2017
Vmarna,
p2005
sI2018
Vmartin
p2006
sI2019
Vwalter
p2007
sI2020
Vlurleen,
p2008
sI2021
Vcy,
p2009
sI2022
Vkittie,
p2010
sI2023
S'management'
p2011
sI2024
Vbritani
p2012
sI2025
Vkathy,
p2013
sI2026
Vgerold
p2014
sI2027
Vsystem
p2015
sI2028
Velric
p2016
sI2029
Vmarylin
p2017
sI2030
Vbary
p2018
sI2031
Vsansone
p2019
sI2032
Vximenez,
p2020
sI2033
Vkendal,
p2021
sI2034
Vjustin,
p2022
sI2035
Vmellisa,
p2023
sI2036
Vjule
p2024
sI2037
Vwoodie
p2025
sI2038
Vsebastiano,
p2026
sI2039
Vmegan
p2027
sI2040
Vtymon
p2028
sI2041
Vgodfry
p2029
sI2042
S'july'
p2030
sI2043
Vinigo,
p2031
sI2044
Vcharmian
p2032
sI2045
Vkathye
p2033
sI2046
S'eyecare'
p2034
sI2047
Vbard
p2035
sI2048
Vkiah,
p2036
sI2049
Vgerold,
p2037
sI2050
Veugenie,
p2038
sI2051
Vclem
p2039
sI2052
Vbertha
p2040
sI2053
Vjacquelyn
p2041
sI2054
Vhave
p2042
sI2055
Vneed
p2043
sI2056
S'redmond'
p2044
sI2057
Vwilfred,
p2045
sI2058
Vromonda,
p2046
sI2059
Vshandee
p2047
sI2060
Vmalena,
p2048
sI2061
Vstanfield
p2049
sI2062
Vlenee
p2050
sI2063
Vdallas
p2051
sI2064
S'babel'
p2052
sI2065
Vchantal,
p2053
sI2066
Vroddie,
p2054
sI2067
Vbaird
p2055
sI2068
Vkelsi,
p2056
sI2069
Vjean-christophe
p2057
sI2070
Vlulita,
p2058
sI2071
Vissy,
p2059
sI2072
S'optometry'
p2060
sI2073
Vmarianna,
p2061
sI2074
S'centre'
p2062
sI2075
Vtedman,
p2063
sI2076
Vflorette,
p2064
sI2077
Vcleland
p2065
sI2078
Vrorie,
p2066
sI2079
Veight
p2067
sI2080
Vtab,
p2068
sI2081
Vcrysta
p2069
sI2082
Vwake,
p2070
sI2083
Vpembroke
p2071
sI2084
Vdeny
p2072
sI2085
Vabelard,
p2073
sI2086
Vnoam,
p2074
sI2087
Vtremayne
p2075
sI2088
Vclaudina
p2076
sI2089
Vjohnathon,
p2077
sI2090
Vmissy,
p2078
sI2091
Vdena
p2079
sI2092
Vluis,
p2080
sI2093
Vwaverley
p2081
sI2094
Vchancey
p2082
sI2095
Vdorothy
p2083
sI2096
Vbobine
p2084
sI2097
Vmugsy
p2085
sI2098
Vgracie,
p2086
sI2099
Vperla
p2087
sI2100
Vclayborn,
p2088
sI2101
Vgladys,
p2089
sI2102
Vjan
p2090
sI2103
Vgus,
p2091
sI2104
Veadith,
p2092
sI2105
Vsybil,
p2093
sI2106
Vmillisent,
p2094
sI2107
Vboris
p2095
sI2108
Vcaroljean,
p2096
sI2109
Vlistened
p2097
sI2110
Vsilas
p2098
sI2111
Vpierre,
p2099
sI2112
Vstavros
p2100
sI2113
Vgrethel
p2101
sI2114
Vkatharina
p2102
sI2115
Valeck
p2103
sI2116
Vcherry,
p2104
sI2117
Vlurette
p2105
sI2118
Vjaime
p2106
sI2119
Vmariette,
p2107
sI2120
Vgoddard
p2108
sI2121
Valoisia
p2109
sI2122
Vrobinett,
p2110
sI2123
Vdevora
p2111
sI2124
Vmelvyn
p2112
sI2125
Vram,
p2113
sI2126
Vlulu,
p2114
sI2127
Vstate
p2115
sI2128
Vashleigh
p2116
sI2129
Vmart,
p2117
sI2130
Vharvie,
p2118
sI2131
Vjenica
p2119
sI2132
Vjoya
p2120
sI2133
Vconstantin,
p2121
sI2134
Vnickie,
p2122
sI2135
Vmadelyn
p2123
sI2136
Vmada,
p2124
sI2137
Vken
p2125
sI2138
Vends
p2126
sI2139
Vjennilee,
p2127
sI2140
Vclint,
p2128
sI2141
Vgym
p2129
sI2142
Vaddie
p2130
sI2143
Vmelloney
p2131
sI2144
Vromona,
p2132
sI2145
Vbelinda
p2133
sI2146
Vamalia
p2134
sI2147
Vdewey,
p2135
sI2148
Vselena
p2136
sI2149
Vcory,
p2137
sI2150
Vleigh,
p2138
sI2151
Vlegra,
p2139
sI2152
Vingemar
p2140
sI2153
Vgoldia
p2141
sI2154
S'april'
p2142
sI2155
Vmaggy
p2143
sI2156
Vconstantine
p2144
sI2157
Vpaolina
p2145
sI2158
Vali,
p2146
sI2159
Vdallas,
p2147
sI2160
S'tuesday'
p2148
sI2161
Vharmonie
p2149
sI2162
Vleo
p2150
sI2163
Vlorrin
p2151
sI2164
Vcy
p2152
sI2165
Volia,
p2153
sI2166
Vwildon,
p2154
sI2167
Vheloise
p2155
sI2168
Vjenica,
p2156
sI2169
Vit's
p2157
sI2170
Vdarrel
p2158
sI2171
Vvick,
p2159
sI2172
Vnellie
p2160
sI2173
Vedythe,
p2161
sI2174
Vlucita
p2162
sI2175
Vkirstie,
p2163
sI2176
S'bbq'
p2164
sI2177
Vsybilla,
p2165
sI2178
Vtray,
p2166
sI2179
Vfinishes
p2167
sI2180
Vdelinda,
p2168
sI2181
Vquintin,
p2169
sI2182
Vdevinne,
p2170
sI2183
Vchantalle,
p2171
sI2184
Vkeren
p2172
sI2185
Vdevinne
p2173
sI2186
S'general'
p2174
sI2187
S'agaust'
p2175
sI2188
Vatlante
p2176
sI2189
Volenka,
p2177
sI2190
Vbradly
p2178
sI2191
Vlanna
p2179
sI2192
Vlanni
p2180
sI2193
Vaugusta
p2181
sI2194
Vwill
p2182
sI2195
Vweber
p2183
sI2196
Vcrissy,
p2184
sI2197
Vsebastien
p2185
sI2198
Vmaynord
p2186
sI2199
Vvi
p2187
sI2200
Vjennette,
p2188
sI2201
Vguillemette
p2189
sI2202
Vlanna,
p2190
sI2203
Vleonelle,
p2191
sI2204
Vrosalynd,
p2192
sI2205
Vlet
p2193
sI2206
Vlazlo,
p2194
sI2207
Vbobette,
p2195
sI2208
Vyetty,
p2196
sI2209
Vparty
p2197
sI2210
Vsolange
p2198
sI2211
Veugenie
p2199
sI2212
Vpaula
p2200
sI2213
Vincorrect
p2201
sI2214
Vkimberlee
p2202
sI2215
S'raymond'
p2203
sI2216
Vberty,
p2204
sI2217
Vneville,
p2205
sI2218
Viago
p2206
sI2219
Vchristofer
p2207
sI2220
Vsolange,
p2208
sI2221
S'student'
p2209
sI2222
Vpaula,
p2210
sI2223
Varabel,
p2211
sI2224
Vkimberley
p2212
sI2225
Voff
p2213
sI2226
Vantonie
p2214
sI2227
Vi
sI2228
Vharmonie,
p2215
sI2229
Voneida
p2216
sI2230
Vtheodor
p2217
sI2231
S'biosciences'
p2218
sI2232
Velene,
p2219
sI2233
Vperceval,
p2220
sI2234
Vignatius
p2221
sI2235
Vcarrie
p2222
sI2236
Vgeorgeta
p2223
sI2237
Vcrista
p2224
sI2238
Vkyrstin
p2225
sI2239
Vnanon
p2226
sI2240
S'clinic'
p2227
sI2241
Vfishing
p2228
sI2242
Vperceval
p2229
sI2243
Vlaurel
p2230
sI2244
Vermina,
p2231
sI2245
Vdenys,
p2232
sI2246
Vtraci,
p2233
sI2247
Vyonina
p2234
sI2248
Vtruda
p2235
sI2249
Vshelby,
p2236
sI2250
Vclyde
p2237
sI2251
Vnoach
p2238
sI2252
Vjohannah
p2239
sI2253
Vgeorge,
p2240
sI2254
Vhomework
p2241
sI2255
Vjerald,
p2242
sI2256
Vtymothy,
p2243
sI2257
S'room,'
p2244
sI2258
Vraymund,
p2245
sI2259
Vrosalynd
p2246
sI2260
Vyovonnda,
p2247
sI2261
Vcarmelina,
p2248
sI2262
Vknow
p2249
sI2263
Vcoreen
p2250
sI2264
Vhettie
p2251
sI2265
Vroz,
p2252
sI2266
S'lincoln'
p2253
sI2267
Vbernadene,
p2254
sI2268
Vlike
p2255
sI2269
Vberkley
p2256
sI2270
Vetty,
p2257
sI2271
Vrobina,
p2258
sI2272
Vjoceline
p2259
sI2273
Vsibelle
p2260
sI2274
Vemmy
p2261
sI2275
Vlilias
p2262
sI2276
Vwalter,
p2263
sI2277
Vbela,
p2264
sI2278
Vhalimeda,
p2265
sI2279
Vdelinda
p2266
sI2280
S'library'
p2267
sI2281
Vizaak,
p2268
sI2282
S'peter'
p2269
sI2283
Vlucita,
p2270
sI2284
Vkristel,
p2271
sI2285
Vmargarete,
p2272
sI2286
Vfanni
p2273
sI2287
Vsansone,
p2274
sI2288
Vbrigitta
p2275
sI2289
S'smyth'
p2276
sI2290
S'murdoch'
p2277
sI2291
Vnettie,
p2278
sI2292
Vjaime,
p2279
sI2293
Vshina,
p2280
sI2294
Vemmalynn
p2281
sI2295
Vwaylin,
p2282
sI2296
Vcarlyle,
p2283
sI2297
Vcarree,
p2284
sI2298
Vanselm
p2285
sI2299
Volia
p2286
sI2300
Vjustin
p2287
sI2301
Vdorolice
p2288
sI2302
Vtomi
p2289
sI2303
Vtoma
p2290
sI2304
Vtome
p2291
sI2305
Varne,
p2292
sI2306
Vteodoor,
p2293
sI2307
Valex,
p2294
sI2308
Vgusella
p2295
sI2309
Vaddie,
p2296
sI2310
Vnancie,
p2297
sI2311
Vkathi,
p2298
sI2312
Velissa,
p2299
sI2313
Vmeira,
p2300
sI2314
Vvan
p2301
sI2315
Vflorinda
p2302
sI2316
Vmanny,
p2303
sI2317
Vpembroke,
p2304
sI2318
Vmaggie,
p2305
sI2319
Vdewey
p2306
sI2320
Vflynn
p2307
sI2321
Vlanni,
p2308
sI2322
S'north'
p2309
sI2323
Vrodger
p2310
sI2324
Vmarlow,
p2311
sI2325
Vanne-marie,
p2312
sI2326
Vbrana
p2313
sI2327
Vkizzee
p2314
sI2328
Vhi
p2315
sI2329
Vismail,
p2316
sI2330
Vdore,
p2317
sI2331
Vapollo
p2318
sI2332
Veat
p2319
sI2333
Vcasia,
p2320
sI2334
Vmada
p2321
sI2335
Vwish
p2322
sI2336
Vchancey,
p2323
sI2337
Vmeta
p2324
sI2338
Vdaniel,
p2325
sI2339
Varne
p2326
sI2340
Vrutter,
p2327
sI2341
Vtaddeo
p2328
sI2342
Vminutes
p2329
sI2343
Voctavius,
p2330
sI2344
Vwaverley,
p2331
sI2345
Vrobinett
p2332
sI2346
Vannabell,
p2333
sI2347
Vhalvard,
p2334
sI2348
Vmilissent
p2335
sI2349
Vkaroly,
p2336
sI2350
Vbelita,
p2337
sI2351
Vbertha,
p2338
sI2352
Vsalvatore,
p2339
sI2353
Veloise,
p2340
sI2354
Vmaiga,
p2341
sI2355
Valeck,
p2342
sI2356
Vamery,
p2343
sI2357
Vsharia
p2344
sI2358
Vkizzee,
p2345
sI2359
Vedgar,
p2346
sI2360
Vmortimer
p2347
sI2361
Vpatsy
p2348
sI2362
Veddie,
p2349
sI2363
Vpacifica
p2350
sI2364
Vbook
p2351
sI2365
Vgustaf,
p2352
sI2366
Vout
p2353
sI2367
Vamalia,
p2354
sI2368
Vcaroleen,
p2355
sI2369
Vbarty
p2356
sI2370
Vstavros,
p2357
sI2371
S'monday'
p2358
sI2372
S'june'
p2359
sI2373
Vsilas,
p2360
sI2374
Vlaural,
p2361
sI2375
Vjess,
p2362
sI2376
Vconnie,
p2363
sI2377
Visaac,
p2364
sI2378
Vthedrick
p2365
sI2379
Vcliff
p2366
sI2380
Vanthony
p2367
sI2381
Vcalli
p2368
sI2382
Vpatsy,
p2369
sI2383
Vemery
p2370
sI2384
Velaina
p2371
sI2385
Voran
p2372
sI2386
Vkimberlee,
p2373
sI2387
Vcleva
p2374
sI2388
Vkettie,
p2375
sI2389
Vcorey
p2376
s(dp2377
g24
I22
sg25
I23
sg27
I25
sg28
I26
sg29
I27
sg30
I28
sg31
I29
sg32
I30
sg33
I31
sg34
I32
sg35
I33
sg36
I34
sg37
I35
sg38
I36
sg39
I37
sg40
I38
sg41
I39
sg42
I40
sg43
I41
sg1600
I1610
sg45
I43
sg46
I44
sg47
I45
sg48
I46
sg49
I47
sg50
I48
sg51
I49
sg52
I50
sg1985
I1997
sg54
I52
sg55
I53
sg56
I54
sg14
I12
sg57
I55
sg58
I56
sg59
I57
sg60
I58
sg61
I59
sg62
I60
sg63
I61
sg64
I62
sg301
I300
sg66
I64
sg67
I65
sg68
I66
sg69
I67
sg70
I68
sg71
I69
sg72
I70
sg73
I71
sg74
I72
sg75
I73
sg2
I0
sg76
I74
sg77
I75
sg78
I76
sg79
I77
sg80
I78
sg81
I79
sg82
I80
sg83
I81
sg84
I82
sg85
I83
sg86
I84
sg87
I85
sg88
I86
sg89
I87
sg90
I88
sg91
I89
sg1176
I1181
sg93
I91
sg94
I92
sg95
I93
sg96
I94
sg97
I95
sg98
I96
sg99
I97
sg100
I98
sg101
I99
sg102
I100
sg103
I101
sg104
I102
sg1232
I1238
sg106
I104
sg107
I105
sg108
I106
sg109
I107
sg110
I108
sg111
I109
sg112
I110
sg113
I111
sg114
I112
sg115
I113
sg116
I114
sg1607
I1617
sg118
I116
sg120
I118
sg121
I119
sg122
I120
sg123
I121
sg124
I122
sg125
I123
sg1996
I2008
sg127
I125
sg128
I126
sg129
I127
sg130
I128
sg131
I129
sg132
I130
sg133
I131
sg134
I132
sg136
I134
sg137
I135
sg138
I136
sg139
I137
sg140
I138
sg141
I139
sg142
I140
sg143
I141
sg144
I142
sg145
I143
sg147
I145
sg702
I702
sg149
I147
sg150
I148
sg708
I708
sg152
I150
sg1997
I2009
sg154
I152
sg155
I153
sg156
I154
sg157
I155
sg158
I156
sg159
I157
sg160
I158
sg161
I159
sg162
I160
sg1609
I1619
sg164
I162
sg165
I163
sg166
I164
sg167
I165
sg168
I166
sg169
I167
sg170
I168
sg171
I169
sg172
I170
sg173
I171
sg174
I172
sg175
I173
sg176
I174
sg177
I175
sg179
I177
sg180
I178
sg181
I179
sg182
I180
sg183
I181
sg184
I182
sg185
I183
sg186
I184
sg187
I185
sg188
I186
sg189
I187
sg190
I188
sg191
I189
sg192
I190
sg193
I191
sg194
I192
sg195
I193
sg196
I194
sg197
I195
sg198
I196
sg3
I1
sg199
I197
sg200
I198
sg201
I199
sg202
I200
sg1769
I1780
sg203
I201
sg204
I202
sg205
I203
sg206
I204
sg207
I205
sg208
I206
sg209
I207
sg210
I208
sg211
I209
sg212
I210
sg213
I211
sg214
I212
sg215
I213
sg2171
I2183
sg216
I214
sg217
I215
sg218
I216
sg219
I217
sg220
I218
sg221
I219
sg222
I220
sg223
I221
sg224
I222
sg225
I223
sg226
I224
sg227
I225
sg228
I226
sg229
I227
sg230
I228
sg231
I229
sg232
I230
sg233
I231
sg234
I232
sg235
I233
sg236
I234
sg237
I235
sg238
I236
sg239
I237
sg240
I238
sg17
I15
sg241
I239
sg242
I240
sg243
I241
sg244
I242
sg245
I243
sg246
I244
sg247
I245
sg2012
I2024
sg249
I247
sg250
I248
sg251
I249
sg252
I250
sg253
I251
sg254
I252
sg256
I254
sg257
I255
sg258
I256
sg259
I257
sg260
I258
sg261
I259
sg262
I260
sg263
I261
sg264
I262
sg265
I263
sg1203
I1209
sg267
I265
sg268
I266
sg269
I267
sg270
I268
sg271
I269
sg272
I270
sg273
I271
sg274
I272
sg275
I273
sg276
I274
sg277
I275
sg278
I276
sg279
I277
sg2354
I2367
sg280
I278
sg281
I279
sg282
I280
sg283
I281
sg284
I282
sg285
I283
sg545
I545
sg286
I284
sg287
I285
sg288
I286
sg289
I287
sg290
I288
sg291
I289
sg292
I290
sg293
I291
sg294
I292
sg295
I293
sg296
I294
sg297
I295
sg2025
I2037
sS'-'
I297
sg2205
I2217
sg299
I298
sg65
I63
sg302
I301
sg841
I842
sg304
I303
sg305
I304
sg306
I305
sg2026
I2038
sg308
I307
sg309
I308
sg310
I309
sg311
I310
sg313
I312
sg314
I313
sg315
I314
sg316
I315
sg317
I316
sg318
I317
sg319
I318
sg320
I319
sg321
I320
sg322
I321
sg1300
I1307
sg324
I323
sg325
I324
sg326
I325
sg327
I326
sg328
I327
sg329
I328
sg330
I329
sg8
I6
sg331
I330
sg332
I331
sg333
I332
sg334
I333
sg335
I334
sg336
I335
sg337
I336
sg338
I337
sg339
I338
sg340
I339
sg341
I340
sg342
I341
sg343
I342
sg344
I343
sg345
I344
sg346
I345
sg981
I984
sg347
I346
sg348
I347
sg349
I348
sg350
I349
sg351
I350
sg352
I351
sg353
I352
sg847
I848
sg355
I354
sg1218
I1224
sg357
I356
sg358
I357
sg2165
I2177
sg359
I358
sg360
I359
sg361
I360
sg362
I361
sg852
I853
sg364
I363
sg365
I364
sg366
I365
sg367
I366
sg427
I427
sg369
I368
sg370
I369
sg372
I371
sg373
I372
sg374
I373
sg375
I374
sg376
I375
sg377
I376
sg378
I377
sg823
I823
sg380
I379
sg2034
I2046
sg381
I380
sg382
I381
sg383
I382
sg384
I383
sg385
I384
sg1223
I1229
sg387
I386
sg388
I387
sg16
I14
sg390
I389
sg391
I390
sg392
I391
sg393
I392
sg394
I393
sg395
I394
sg396
I395
sg397
I396
sg398
I397
sg399
I398
sg400
I399
sg401
I400
sg402
I401
sg403
I402
sg404
I403
sg405
I404
sV.
I405
sg406
I406
sg407
I407
sg408
I408
sg409
I409
sg411
I411
sg412
I412
sg413
I413
sg414
I414
sg415
I415
sg416
I416
sg417
I417
sg418
I418
sg419
I419
sg420
I420
sg421
I421
sg422
I422
sg423
I423
sg424
I424
sg425
I425
sg426
I426
sg428
I428
sg429
I429
sg430
I430
sg431
I431
sg432
I432
sg433
I433
sg434
I434
sg435
I435
sg436
I436
sg437
I437
sg438
I438
sg439
I439
sg440
I440
sg441
I441
sg442
I442
sg443
I443
sg444
I444
sg445
I445
sg446
I446
sg447
I447
sg448
I448
sg449
I449
sg450
I450
sg451
I451
sg452
I452
sg453
I453
sg454
I454
sg455
I455
sg456
I456
sg457
I457
sg458
I458
sg459
I459
sg460
I460
sg461
I461
sg462
I462
sg463
I463
sg464
I464
sg465
I465
sg466
I466
sg467
I467
sg468
I468
sg469
I469
sg470
I470
sg471
I471
sg472
I472
sg1668
I1679
sg474
I474
sg475
I475
sg476
I476
sg477
I477
sg478
I478
sg479
I479
sg480
I480
sg481
I481
sg482
I482
sg483
I483
sg484
I484
sg874
I875
sg486
I486
sg487
I487
sg488
I488
sg489
I489
sg490
I490
sg491
I491
sg492
I492
sg493
I493
sg494
I494
sg495
I495
sg496
I496
sg497
I497
sg9
I7
sg499
I499
sg500
I500
sg501
I501
sg502
I502
sg503
I503
sg505
I505
sg878
I879
sg507
I507
sg508
I508
sg509
I509
sg510
I510
sg511
I511
sg512
I512
sg513
I513
sg105
I103
sg514
I514
sg515
I515
sg516
I516
sg2229
I2242
sg517
I517
sg880
I881
sg519
I519
sg520
I520
sg521
I521
sg522
I522
sg523
I523
sg524
I524
sg525
I525
sg526
I526
sg1245
I1251
sg528
I528
sg626
I626
sg530
I530
sg531
I531
sg532
I532
sg533
I533
sg534
I534
sg535
I535
sg536
I536
sg537
I537
sg538
I538
sg1246
I1252
sg540
I540
sg691
I691
sg542
I542
sg719
I719
sg725
I725
sg1345
I1353
sg546
I546
sg547
I547
sg548
I548
sg549
I549
sg550
I550
sg551
I551
sg552
I552
sg553
I553
sg554
I554
sg555
I555
sg556
I556
sg557
I557
sg558
I558
sg559
I559
sg560
I560
sg561
I561
sg562
I562
sg563
I563
sg19
I17
sg564
I564
sg832
I832
sg566
I566
sg567
I567
sg568
I568
sg569
I569
sg868
I869
sg571
I571
sg1684
I1695
sg573
I573
sg574
I574
sg575
I575
sg576
I576
sg577
I577
sg578
I578
sg579
I579
sg580
I580
sg913
I914
sg582
I582
sg583
I583
sg584
I584
sg585
I585
sg586
I586
sg587
I587
sg588
I588
sg589
I589
sg888
I889
sg591
I591
sg592
I592
sg593
I593
sg594
I594
sg1008
I1011
sg596
I596
sg597
I597
sg1024
I1027
sg599
I599
sg600
I600
sg601
I601
sg1055
I1059
sg603
I603
sg1079
I1083
sg605
I605
sg1088
I1092
sg607
I607
sg608
I608
sg609
I609
sg610
I610
sg611
I611
sg1148
I1153
sg613
I613
sg614
I614
sg615
I615
sg617
I617
sg618
I618
sg619
I619
sg620
I620
sg621
I621
sg622
I622
sg623
I623
sg624
I624
sg625
I625
sg529
I529
sg627
I627
sg1263
I1270
sg629
I629
sg630
I630
sg631
I631
sg632
I632
sg633
I633
sg634
I634
sg635
I635
sg636
I636
sg637
I637
sg638
I638
sg639
I639
sg1269
I1276
sg641
I641
sg642
I642
sg643
I643
sg644
I644
sg645
I645
sg646
I646
sg647
I647
sg648
I648
sg649
I649
sg650
I650
sg651
I651
sg652
I652
sg653
I653
sg654
I654
sg655
I655
sg656
I656
sg657
I657
sg658
I658
sg659
I659
sg660
I660
sg661
I661
sg1702
I1713
sg663
I663
sg984
I987
sg665
I665
sg666
I666
sg667
I667
sg668
I668
sg669
I669
sg670
I670
sg671
I671
sg672
I672
sg673
I673
sg674
I674
sg675
I675
sg676
I676
sg677
I677
sg678
I678
sg679
I679
sg680
I680
sg681
I681
sg682
I682
sg683
I683
sg684
I684
sg685
I685
sg686
I686
sg687
I687
sg688
I688
sg689
I689
sg900
I901
sg541
I541
sg692
I692
sg693
I693
sg694
I694
sg695
I695
sg696
I696
sg697
I697
sg698
I698
sg699
I699
sg700
I700
sg701
I701
sg1748
I1759
sg703
I703
sg704
I704
sg705
I705
sg706
I706
sg707
I707
sg151
I149
sg709
I709
sg710
I710
sg711
I711
sg712
I712
sg713
I713
sg714
I714
sg715
I715
sg716
I716
sg18
I16
sg718
I718
sg543
I543
sg720
I720
sg721
I721
sg723
I723
sg724
I724
sg544
I544
sg726
I726
sg727
I727
sg728
I728
sg729
I729
sg730
I730
sg731
I731
sg732
I732
sg733
I733
sg734
I734
sg735
I735
sg736
I736
sg737
I737
sg738
I738
sg739
I739
sg1714
I1725
sg741
I741
sg742
I742
sg743
I743
sg744
I744
sg745
I745
sg746
I746
sg1662
I1673
sg747
I747
sg748
I748
sg749
I749
sg750
I750
sg751
I751
sg752
I752
sg753
I753
sg754
I754
sg755
I755
sg756
I756
sg757
I757
sg758
I758
sg759
I759
sg760
I760
sg761
I761
sg762
I762
sg763
I763
sg764
I764
sg765
I765
sg766
I766
sg767
I767
sg768
I768
sg769
I769
sg770
I770
sg771
I771
sg772
I772
sg773
I773
sg774
I774
sg775
I775
sg776
I776
sg777
I777
sg778
I778
sg779
I779
sg780
I780
sg781
I781
sg782
I782
sg783
I783
sg784
I784
sg785
I785
sg1295
I1302
sg788
I788
sg789
I789
sg790
I790
sg791
I791
sg792
I792
sg793
I793
sg794
I794
sg795
I795
sg796
I796
sg797
I797
sg798
I798
sg799
I799
sg800
I800
sg801
I801
sg1332
I1340
sg802
I802
sg803
I803
sg2271
I2284
sg804
I804
sg805
I805
sg806
I806
sg807
I807
sg808
I808
sg809
I809
sg810
I810
sg811
I811
sg148
I146
sg812
I812
sg813
I813
sg814
I814
sg815
I815
sg816
I816
sg817
I817
sg818
I818
sg819
I819
sg820
I820
sg821
I821
sg822
I822
sg379
I378
sg824
I824
sg11
I9
sg825
I825
sg826
I826
sg827
I827
sg828
I828
sg829
I829
sg830
I830
sg831
I831
sg565
I565
sg833
I833
sg834
I834
sS'2'
I835
sg835
I836
sg836
I837
sg837
I838
sg838
I839
sg839
I840
sg840
I841
sg303
I302
sg842
I843
sg843
I844
sg844
I845
sg845
I846
sg846
I847
sg354
I353
sg848
I849
sg849
I850
sg850
I851
sg851
I852
sg363
I362
sg853
I854
sg854
I855
sg855
I856
sg856
I857
sg857
I858
sg858
I859
sg1843
I1854
sg859
I860
sg860
I861
sg861
I862
sg862
I863
sg2033
I2045
sg863
I864
sg864
I865
sg865
I866
sg866
I867
sg867
I868
sg570
I570
sg869
I870
sg870
I871
sg871
I872
sg21
I19
sg872
I873
sg1730
I1741
sg485
I485
sg875
I876
sg876
I877
sg2109
I2121
sg506
I506
sg879
I880
sg518
I518
sg881
I882
sg882
I883
sg23
I21
sg883
I884
sg2357
I2370
sg884
I885
sg885
I886
sg886
I887
sg887
I888
sg590
I590
sg889
I890
sg890
I891
sg891
I892
sg892
I893
sg893
I894
sg2328
I2341
sg894
I895
sg895
I896
sg896
I897
sg897
I898
sg898
I899
sg899
I900
sg690
I690
sg901
I902
sg902
I903
sg903
I904
sg904
I905
sg905
I906
sg906
I907
sg907
I908
sg908
I909
sg909
I910
sg910
I911
sg911
I912
sg2141
I2153
sg912
I913
sg581
I581
sg914
I915
sg915
I916
sg916
I917
sg2121
I2133
sg918
I919
sg919
I920
sg939
I941
sg921
I922
sg922
I923
sg923
I924
sg924
I925
sg925
I926
sg926
I927
sg927
I928
sg928
I929
sg929
I930
sg930
I931
sg931
I932
sg932
I933
sg933
I934
sg934
I935
sg935
I936
sg1852
I1863
sS'3'
I937
sg936
I938
sg937
I939
sg938
I940
sg920
I921
sg940
I942
sg941
I943
sg942
I944
sg1330
I1338
sg944
I946
sg945
I947
sg946
I948
sg1331
I1339
sg948
I950
sg949
I951
sg950
I952
sg2131
I2143
sg952
I954
sg953
I955
sg954
I956
sg1021
I1024
sg1337
I1345
sg957
I959
sg958
I960
sg12
I10
sg960
I962
sg1050
I1054
sg961
I964
sg963
I966
sg964
I967
sg965
I968
sg966
I969
sg967
I970
sg968
I971
sg969
I972
sg970
I973
sg971
I974
sg972
I975
sg2134
I2146
sg1096
I1100
sg974
I977
sg975
I978
sg976
I979
sg977
I980
sg978
I981
sg979
I982
sg980
I983
sg1138
I1142
sg982
I985
sg983
I986
sg985
I988
sg986
I989
sg988
I991
sg989
I992
sg1194
I1200
sg1747
I1758
sg2140
I2152
sg993
I996
sg994
I997
sg995
I998
sg996
I999
sg997
I1000
sg998
I1001
sg999
I1002
sg1000
I1003
sg1750
I1761
sg2099
I2111
sg1002
I1005
sg1003
I1006
sg2197
I2209
sg1004
I1007
sg1314
I1322
sg1006
I1009
sg1007
I1010
sg1327
I1335
sg1009
I1012
sg1010
I1013
sg1011
I1014
sg1012
I1015
sg1013
I1016
sg1014
I1017
sg1015
I1018
sg1016
I1019
sg1017
I1020
sg1018
I1021
sg1019
I1022
sg1020
I1023
sg955
I957
sg1022
I1025
sg1023
I1026
sg598
I598
sg1025
I1028
sg1026
I1029
sg1027
I1030
sg1028
I1031
sg1029
I1032
sg22
I20
sg1030
I1033
sg1031
I1034
sg1355
I1363
sg1033
I1036
sg1034
I1037
sg1035
I1038
sg1036
I1039
sg1037
I1040
sg1038
I1041
sg959
I961
sg1040
I1043
sg1041
I1044
sg1042
I1045
sg2147
I2159
sS'4'
I1047
sg1044
I1048
sg1045
I1049
sg1046
I1050
sg1047
I1051
sg1048
I1052
sg1049
I1053
sg1051
I1055
sg1052
I1056
sg1053
I1057
sg1054
I1058
sg602
I602
sg1056
I1060
sg1057
I1061
sg1058
I1062
sg1059
I1063
sg1060
I1064
sg1061
I1065
sg1062
I1066
sg1063
I1067
sg1064
I1068
sg1065
I1069
sg1066
I1070
sg1067
I1071
sg1068
I1072
sg1069
I1073
sg1070
I1074
sg1071
I1075
sg1072
I1076
sg1073
I1077
sg1074
I1078
sg1075
I1079
sg1076
I1080
sg1077
I1081
sg1078
I1082
sg604
I604
sg1080
I1084
sg1081
I1085
sg1082
I1086
sg1083
I1087
sg1084
I1088
sg1085
I1089
sg1086
I1090
sg1087
I1091
sg606
I606
sg1089
I1093
sg1090
I1094
sg1091
I1095
sg1092
I1096
sg1093
I1097
sg2191
I2203
sg2187
I2199
sg1094
I1098
sg1095
I1099
sg973
I976
sg1416
I1424
sg1366
I1374
sg1099
I1103
sg1100
I1104
sg1101
I1105
sg1102
I1106
sg1103
I1107
sg1104
I1108
sg1105
I1109
sg1106
I1110
sg1107
I1111
sg1108
I1112
sg1109
I1113
sg1110
I1114
sg1111
I1115
sg1112
I1116
sg1113
I1117
sg1580
I1590
sg1114
I1118
sg1115
I1119
sg1116
I1120
sV,
I963
sg1117
I1121
sg1118
I1122
sg1119
I1123
sg1120
I1124
sg1121
I1125
sg1122
I1126
sg1123
I1127
sg1124
I1128
sg1125
I1129
sg1126
I1130
sg135
I133
sg1128
I1132
sg1129
I1133
sg1130
I1134
sg1131
I1135
sg1132
I1136
sg1133
I1137
sg1134
I1138
sg1135
I1139
sg1136
I1140
sg1137
I1141
sg2167
I2179
sg1139
I1143
sg1140
I1144
sg1141
I1145
sg1142
I1146
sg1143
I1147
sg1144
I1148
sS'5'
I1149
sg1145
I1150
sg1146
I1151
sg13
I11
sg1147
I1152
sg612
I612
sg1149
I1154
sg2169
I2181
sg1150
I1155
sg1151
I1156
sg1152
I1157
sg2170
I2182
sg1154
I1159
sg1155
I1160
sg1156
I1161
sg1157
I1162
sg1158
I1163
sg1159
I1164
sg1160
I1165
sg1161
I1166
sg1162
I1167
sg1163
I1168
sg1164
I1169
sg1165
I1170
sg1166
I1171
sg1167
I1172
sg1168
I1173
sg1169
I1174
sg1170
I1175
sg1171
I1176
sg1172
I1177
sg1173
I1178
sg1174
I1179
sg1175
I1180
sg92
I90
sg1177
I1182
sg1178
I1183
sg1179
I1184
sg1180
I1185
sg1181
I1186
sg1182
I1187
sg1183
I1188
sg1384
I1392
sg1184
I1190
sg1185
I1191
sg1186
I1192
sg1187
I1193
sg1188
I1194
sg1189
I1195
sg1190
I1196
sg1191
I1197
sg1192
I1198
sg1193
I1199
sg990
I993
sg1195
I1201
sg1196
I1202
sg1197
I1203
sg1198
I1204
sg1199
I1205
sg1200
I1206
sg1201
I1207
sg1202
I1208
sg266
I264
sg1204
I1210
sg1205
I1211
sg1206
I1212
sg1207
I1213
sg1208
I1214
sg1209
I1215
sg1210
I1216
sg1211
I1217
sg1212
I1218
sg1213
I1219
sg1214
I1220
sg1215
I1221
sg1217
I1223
sg356
I355
sg1219
I1225
sg1220
I1226
sg1221
I1227
sg1222
I1228
sg386
I385
sg1224
I1230
sg1225
I1231
sg1226
I1232
sg1227
I1233
sg1228
I1234
sg1229
I1235
sg1230
I1236
sg1231
I1237
sg1690
I1701
sg1233
I1239
sg1234
I1240
sg1235
I1241
sg1236
I1242
sg1237
I1243
sg1238
I1244
sg2186
I2198
sg1239
I1245
sg1240
I1246
sg1241
I1247
sg1774
I1785
sg1242
I1248
sg1243
I1249
sg1244
I1250
sg527
I527
sg539
I539
sg1247
I1253
sg1248
I1254
sg1249
I1255
sg1250
I1256
sg1251
I1257
sg1252
I1258
sS'6'
I1259
sg1254
I1261
sg1255
I1262
sg1256
I1263
sg1257
I1264
sg1258
I1265
sg1259
I1266
sg1260
I1267
sg1261
I1268
sg1262
I1269
sg628
I628
sg1264
I1271
sg1265
I1272
sg1266
I1273
sg1267
I1274
sg1268
I1275
sg640
I640
sg1270
I1277
sg1271
I1278
sg1272
I1279
sg1273
I1280
sg1274
I1281
sg1275
I1282
sg1276
I1283
sg1277
I1284
sg1278
I1285
sg1798
I1809
sg1742
I1753
sg1280
I1287
sg1281
I1288
sg1282
I1289
sg1283
I1290
sg312
I311
sg1285
I1292
sg1286
I1293
sg1287
I1294
sg1288
I1295
sg1289
I1296
sg1290
I1297
sg2302
I2315
sg1291
I1298
sg1292
I1299
sg1293
I1300
sg1294
I1301
sg2309
I2322
sg786
I786
sg1296
I1303
sg1297
I1304
sg1298
I1305
sg1301
I1308
sg1302
I1309
sg1303
I1310
sg1304
I1311
sg1305
I1312
sg1306
I1313
sg1307
I1314
sg1308
I1315
sVa
I1316
sg1309
I1317
sg1310
I1318
sg1311
I1319
sg1312
I1320
sg1313
I1321
sg1005
I1008
sg1316
I1324
sg1317
I1325
sg1318
I1326
sg1319
I1327
sg1320
I1328
sg1321
I1329
sg1322
I1330
sg1323
I1331
sg1324
I1332
sg1325
I1333
sg1326
I1334
sg1328
I1336
sg1950
I1962
sg1329
I1337
sg943
I945
sg947
I949
sg300
I299
sg1333
I1341
sg1334
I1342
sg1335
I1343
sg1336
I1344
sg956
I958
sg1338
I1346
sg1339
I1347
sg1340
I1348
sg1341
I1349
sg1342
I1350
sg1343
I1351
sg1344
I1352
sg1346
I1354
sg1347
I1355
sg1348
I1356
sg1349
I1357
sg1350
I1358
sg1351
I1359
sg1352
I1360
sg1353
I1361
sg1354
I1362
sg1032
I1035
sg1356
I1364
sg1357
I1365
sg1358
I1366
sg1359
I1367
sg1360
I1368
sg1361
I1369
sg2200
I2212
sg1363
I1371
sg1364
I1372
sg1365
I1373
sg1098
I1102
sg1368
I1376
sg1369
I1377
sg1370
I1378
sg1371
I1379
sg1372
I1380
sg1373
I1381
sg1374
I1382
sg1375
I1383
sg1376
I1384
sg1377
I1385
sg1378
I1386
sg1813
I1824
sg1379
I1387
sg1380
I1388
sg1381
I1389
sg1382
I1390
sg1383
I1391
sS'7'
I1189
sg1385
I1393
sg1386
I1394
sg1387
I1395
sg1388
I1396
sg1389
I1397
sg1390
I1398
sg1391
I1399
sg1392
I1400
sg1393
I1401
sg1394
I1402
sg1395
I1403
sg1396
I1404
sg1397
I1405
sg1398
I1406
sg1399
I1407
sg1400
I1408
sg1401
I1409
sg1402
I1410
sg1403
I1411
sg1404
I1412
sg1405
I1413
sg1406
I1414
sg1407
I1415
sg1408
I1416
sg1409
I1417
sg1410
I1418
sg1411
I1419
sg1412
I1420
sg1413
I1421
sg1414
I1422
sg1415
I1423
sg1417
I1425
sg1418
I1426
sg1419
I1427
sg1420
I1428
sg1421
I1429
sg1422
I1430
sg1820
I1831
sg20
I18
sg1424
I1432
sg1425
I1433
sg1426
I1434
sg2214
I2226
sg1428
I1436
sg1429
I1437
sg1430
I1438
sg1431
I1439
sg1432
I1440
sg1433
I1441
sg1434
I1442
sg1435
I1443
sg1436
I1444
sg1437
I1445
sg1438
I1446
sg1439
I1447
sg1440
I1448
sg1441
I1449
sg1442
I1450
sg1443
I1451
sg1444
I1452
sg1445
I1453
sg1446
I1454
sg1447
I1455
sg1448
I1456
sg1449
I1457
sg1450
I1458
sg1451
I1459
sg595
I595
sg1453
I1461
sg1454
I1462
sg1455
I1463
sg1456
I1464
sg1457
I1465
sg1458
I1466
sg1459
I1467
sg1460
I1468
sg1461
I1469
sg1462
I1470
sg1463
I1471
sg1464
I1472
sg1465
I1473
sg1466
I1474
sg1467
I1475
sg2202
I2214
sg1469
I1477
sg1470
I1478
sg1795
I1806
sg1471
I1479
sg1472
I1480
sg1473
I1481
sg1474
I1482
sg1475
I1483
sg1476
I1484
sg1477
I1485
sg1478
I1486
sg1479
I1487
sg1480
I1488
sg1481
I1489
sg1482
I1490
sg1483
I1491
sg1485
I1493
sg1486
I1494
sg1487
I1495
sg1488
I1496
sg1489
I1497
sg1490
I1498
sg1491
I1499
sg1492
I1500
sg1493
I1501
sg1494
I1502
sg1495
I1503
sg2224
I2237
sg1497
I1505
sS'8'
I1506
sg1840
I1851
sg1499
I1508
sg1500
I1509
sg1501
I1510
sg1502
I1511
sg1503
I1512
sg1830
I1841
sg1505
I1514
sg1506
I1515
sg1507
I1516
sg1508
I1517
sg1509
I1518
sg1510
I1519
sg1511
I1520
sg1512
I1521
sg1513
I1522
sg1514
I1523
sg1515
I1524
sg1516
I1525
sg1517
I1526
sg1518
I1527
sg1519
I1528
sg1520
I1529
sg1521
I1530
sg1522
I1531
sg1523
I1532
sg1524
I1533
sg1525
I1534
sg1526
I1535
sg1527
I1536
sg1528
I1537
sg1529
I1538
sg1531
I1540
sg1532
I1541
sg1533
I1542
sg1534
I1543
sg1535
I1544
sg1536
I1545
sg1537
I1546
sg1538
I1547
sg1539
I1548
sg1540
I1549
sg1541
I1550
sg1542
I1551
sg1543
I1552
sg1544
I1553
sg1545
I1554
sg1546
I1555
sg1547
I1556
sg1548
I1557
sg1549
I1558
sg1039
I1042
sg1550
I1559
sS'c'
I1560
sg1551
I1561
sg1552
I1562
sg1553
I1563
sg1554
I1564
sg1555
I1565
sg1556
I1566
sg119
I117
sg1558
I1568
sg1559
I1569
sg1560
I1570
sg1561
I1571
sg1562
I1572
sg1563
I1573
sg1564
I1574
sg1565
I1575
sg1566
I1576
sg1567
I1577
sg1569
I1579
sg1570
I1580
sg1571
I1581
sg1572
I1582
sg1573
I1583
sg1574
I1584
sg1575
I1585
sg1576
I1586
sg1577
I1587
sg1578
I1588
sg1579
I1589
sg664
I664
sg2039
I2051
sg1581
I1591
sg1582
I1592
sg1584
I1594
sg1568
I1578
sg1586
I1596
sg1587
I1597
sg1588
I1598
sg1589
I1599
sg1590
I1600
sg1591
I1601
sg1592
I1602
sg1593
I1603
sg1594
I1604
sg1595
I1605
sg1596
I1606
sg1597
I1607
sg1598
I1608
sg1599
I1609
sg44
I42
sg1601
I1611
sg1602
I1612
sg2241
I2254
sg1604
I1614
sg1606
I1616
sg117
I115
sg1608
I1618
sg163
I161
sg1610
I1620
sg1611
I1621
sg1612
I1622
sg1613
I1623
sg1614
I1624
sg1615
I1625
sg1616
I1626
sS'9'
I1627
sg1617
I1628
sg1618
I1629
sg1620
I1631
sg1621
I1632
sg1850
I1861
sg1623
I1634
sg1624
I1635
sg1625
I1636
sg1626
I1637
sg1627
I1638
sg1628
I1639
sg1629
I1640
sg1630
I1641
sg1631
I1642
sg1632
I1643
sg1633
I1644
sg1634
I1645
sg1635
I1646
sg1636
I1647
sg1452
I1460
sg1638
I1649
sg1639
I1650
sg2248
I2261
sg1641
I1652
sg1642
I1653
sg1643
I1654
sg1644
I1655
sg1645
I1656
sg1646
I1657
sg1647
I1658
sg1648
I1659
sg1649
I1660
sg1650
I1661
sg1651
I1662
sg1652
I1663
sg1653
I1664
sg1654
I1665
sg1655
I1666
sg1656
I1667
sg1657
I1668
sg1658
I1669
sg1659
I1670
sg1660
I1671
sg1661
I1672
sg1468
I1476
sg1663
I1674
sg1664
I1675
sg1665
I1676
sg1666
I1677
sg1667
I1678
sg473
I473
sg1669
I1680
sg1670
I1681
sg498
I498
sg1672
I1683
sg1673
I1684
sg1674
I1685
sg1675
I1686
sg1676
I1687
sg1677
I1688
sg1678
I1689
sg1679
I1690
sg1680
I1691
sg1681
I1692
sg1682
I1693
sg1683
I1694
sg572
I572
sg6
I4
sg1685
I1696
sg1686
I1697
sg1687
I1698
sg1688
I1699
sg1689
I1700
sg1691
I1702
sg1692
I1703
sg1693
I1704
sg1694
I1705
sg1695
I1706
sg1696
I1707
sg1697
I1708
sg1698
I1709
sg1699
I1710
sg1700
I1711
sg1701
I1712
sg662
I662
sg1703
I1714
sg1704
I1715
sg1705
I1716
sg1706
I1717
sg1707
I1718
sg1708
I1719
sg1709
I1720
sg2260
I2273
sg1711
I1722
sg1712
I1723
sg1713
I1724
sg740
I740
sg2262
I2275
sg1716
I1727
sg1717
I1728
sg1718
I1729
sg1756
I1767
sg1719
I1730
sg1720
I1731
sg1721
I1732
sg1722
I1733
sg1723
I1734
sg1724
I1735
sg1725
I1736
sg1726
I1737
sg1727
I1738
sg1729
I1740
sg873
I874
sg1731
I1742
sg1732
I1743
sg1733
I1744
sg1734
I1745
sg2268
I2281
sg1736
I1747
sg1737
I1748
sg1738
I1749
sg1739
I1750
sg1740
I1751
sg1741
I1752
sg1530
I1539
sg1743
I1754
sg1744
I1755
sg1745
I1756
sg1746
I1757
sg991
I994
sg1749
I1760
sg1001
I1004
sg1751
I1762
sg2018
I2030
sg1753
I1764
sg1754
I1765
sg1755
I1766
sg1484
I1492
sg1757
I1768
sg1758
I1769
sg1759
I1770
sg1760
I1771
sg1761
I1772
sg1762
I1773
sg1763
I1774
sg1764
I1775
sg1765
I1776
sg1766
I1777
sg1767
I1778
sg1768
I1779
sg1097
I1101
sg1770
I1781
sg1771
I1782
sg1772
I1783
sg2364
I2377
sg1773
I1784
sg323
I322
sg1775
I1786
sg1776
I1787
sg1777
I1788
sg1778
I1789
sg1779
I1790
sg1780
I1791
sg1781
I1792
sg1782
I1793
sg1783
I1794
sg1784
I1795
sg2273
I2286
sg1786
I1797
sg1787
I1798
sg1788
I1799
sg1789
I1800
sg1790
I1801
sg1791
I1802
sg1792
I1803
sg1793
I1804
sg1794
I1805
sg1216
I1222
sg1796
I1807
sg1797
I1808
sg1279
I1286
sg1799
I1810
sg1800
I1811
sg1801
I1812
sg1802
I1813
sg1803
I1814
sg1804
I1815
sg1805
I1816
sg1806
I1817
sg1807
I1818
sg1808
I1819
sg1809
I1820
sg1810
I1821
sg1811
I1822
sg1812
I1823
sg1605
I1615
sg1814
I1825
sg1815
I1826
sg1816
I1827
sg1817
I1828
sg1818
I1829
sg1819
I1830
sg1423
I1431
sg717
I717
sg1821
I1832
sg1822
I1833
sg1823
I1834
sg1824
I1835
sg1825
I1836
sg1826
I1837
sg1827
I1838
sg1828
I1839
sg1829
I1840
sg1504
I1513
sg1831
I1842
sg1832
I1843
sg1833
I1844
sg1834
I1845
sg1835
I1846
sg1837
I1848
sg1838
I1849
sg1879
I1890
sg1498
I1507
sg1841
I1852
sg7
I5
sg1842
I1853
sg1583
I1593
sg1844
I1855
sg1846
I1857
sg1847
I1858
sg1848
I1859
sg1849
I1860
sg1622
I1633
sg1851
I1862
sg255
I253
sg1853
I1864
sg1854
I1865
sg1855
I1866
sg1856
I1867
sg1857
I1868
sg1858
I1869
sg1859
I1870
sg1860
I1871
sg1861
I1872
sg1862
I1873
sg1863
I1874
sg1864
I1875
sg1865
I1876
sg1866
I1877
sg1867
I1878
sg1868
I1879
sg1869
I1880
sg1870
I1881
sg1871
I1882
sg1872
I1883
sg1873
I1884
sg1874
I1885
sg1875
I1886
sg1876
I1887
sg1877
I1888
sg1878
I1889
sg1839
I1850
sg1880
I1891
sg1881
I1892
sg2263
I2276
sg1882
I1893
sg1883
I1894
sg2113
I2125
sg1884
I1895
sg1885
I1896
sg1886
I1897
sg1887
I1898
sg1889
I1900
sg1888
I1899
sg1890
I1901
sg1891
I1902
sg1892
I1903
sg1893
I1904
sg1894
I1905
sg1895
I1906
sg1896
I1907
sg1897
I1908
sg1898
I1909
sg1899
I1910
sg1900
I1911
sg1901
I1912
sg1902
I1913
sg1903
I1914
sg1904
I1915
sg1905
I1916
sg1906
I1917
sg1907
I1918
sg1908
I1919
sg1909
I1920
sg1910
I1921
sg1911
I1922
sg1912
I1923
sg1913
I1924
sg1914
I1925
sg1915
I1926
sg1916
I1927
sg1917
I1928
sg1918
I1929
sg1919
I1930
sg1920
I1931
sg1921
I1932
sg1922
I1933
sg1923
I1934
sg1924
I1935
sg1925
I1936
sg1926
I1937
sg1928
I1939
sg1929
I1940
sg1930
I1941
sg1931
I1942
sg1933
I1944
sg1934
I1945
sS'1'
I1946
sg1935
I1947
sg1936
I1948
sg1937
I1949
sg1938
I1950
sg1939
I1951
sg1940
I1952
sg1941
I1953
sg1942
I1954
sg1943
I1955
sg1944
I1956
sg1945
I1957
sg1946
I1958
sg1947
I1959
sg1948
I1960
sg1949
I1961
sg1619
I1630
sg1951
I1963
sg1952
I1964
sg1953
I1965
sg1954
I1966
sg1955
I1967
sg1956
I1968
sg1957
I1969
sg1958
I1970
sg1959
I1971
sg1960
I1972
sg1961
I1973
sg1962
I1974
sg1963
I1975
sg1964
I1976
sg1965
I1977
sg1966
I1978
sg1967
I1979
sg1968
I1980
sg1969
I1981
sg1970
I1982
sg1971
I1983
sg1972
I1984
sg1973
I1985
sg1974
I1986
sg1975
I1987
sg1976
I1988
sg1977
I1989
sg1978
I1990
sg1979
I1991
sg1980
I1992
sg1981
I1993
sg1982
I1994
sg1983
I1995
sg1984
I1996
sg53
I51
sg1986
I1998
sg1987
I1999
sg1988
I2000
sg1989
I2001
sg1990
I2002
sg1991
I2003
sg1992
I2004
sg1993
I2005
sg1994
I2006
sg1995
I2007
sg126
I124
sg2259
I2272
sg153
I151
sg1998
I2010
sg1999
I2011
sg2000
I2012
sg2001
I2013
sg2002
I2014
sg2003
I2015
sg2004
I2016
sg2007
I2019
sg2303
I2316
sg4
I2
sg2009
I2021
sg2010
I2022
sg2011
I2023
sg248
I246
sg2013
I2025
sg2014
I2026
sg2015
I2027
sg2016
I2028
sg2017
I2029
sg1752
I1763
sg2019
I2031
sg2020
I2032
sg2021
I2033
sg2022
I2034
sg2023
I2035
sg2024
I2036
sg298
I296
sg307
I306
sg2027
I2039
sg2028
I2040
sg2029
I2041
sg2030
I2042
sg2031
I2043
sg2032
I2044
sg368
I367
sg1845
I1856
sg2035
I2047
sg2036
I2048
sg2037
I2049
sg2038
I2050
sg410
I410
sg2040
I2052
sg2041
I2053
sg2042
I2054
sg2043
I2055
sg2044
I2056
sg2045
I2057
sg2046
I2058
sg2047
I2059
sg2048
I2060
sg2049
I2061
sg2050
I2062
sg2051
I2063
sg2052
I2064
sg2053
I2065
sg2054
I2066
sg2055
I2067
sg2056
I2068
sg504
I504
sg2058
I2070
sg2059
I2071
sg2060
I2072
sg2061
I2073
sg2062
I2074
sg2063
I2075
sg2201
I2213
sg2064
I2076
sg2065
I2077
sg2066
I2078
sg2067
I2079
sg2068
I2080
sg2069
I2081
sg2070
I2082
sg2071
I2083
sg2072
I2084
sg2073
I2085
sg2074
I2086
sg2075
I2087
sg2076
I2088
sg2077
I2089
sg2078
I2090
sg2079
I2091
sg2080
I2092
sg2081
I2093
sg2082
I2094
sg2083
I2095
sg2084
I2096
sg2085
I2097
sg2086
I2098
sg2087
I2099
sg2088
I2100
sg2089
I2101
sg2090
I2102
sg2091
I2103
sg2092
I2104
sg2093
I2105
sg2094
I2106
sg2095
I2107
sg2096
I2108
sg2097
I2109
sg2098
I2110
sg371
I370
sg2100
I2112
sg2101
I2113
sg2102
I2114
sg2103
I2115
sg2104
I2116
sg2105
I2117
sg2106
I2118
sg2107
I2119
sg2108
I2120
sg877
I878
sg2110
I2122
sg2112
I2124
sg722
I722
sg2114
I2126
sg2115
I2127
sg2116
I2128
sg2117
I2129
sg2118
I2130
sg2119
I2131
sg2120
I2132
sg917
I918
sg2122
I2134
sg2123
I2135
sg2124
I2136
sg2125
I2137
sg2126
I2138
sg2127
I2139
sg2128
I2140
sg2129
I2141
sg2130
I2142
sg951
I953
sg2132
I2144
sg2133
I2145
sg962
I965
sg2135
I2147
sg2136
I2148
sg2137
I2149
sg2138
I2150
sg2139
I2151
sg992
I995
sg987
I990
sg2142
I2154
sg2143
I2155
sg2144
I2156
sg2145
I2157
sg2146
I2158
sg1043
I1046
sg2148
I2160
sg2149
I2161
sg2150
I2162
sg2151
I2163
sg2152
I2164
sg2153
I2165
sg2154
I2166
sg2155
I2167
sg2156
I2168
sg2157
I2169
sg2158
I2170
sg2159
I2171
sg2160
I2172
sg2161
I2173
sg2162
I2174
sg2163
I2175
sg2164
I2176
sg1127
I1131
sg2166
I2178
sg2174
I2186
sg26
I24
sg2168
I2180
sg2057
I2069
sg1153
I1158
sg5
I3
sg1637
I1648
sg2172
I2184
sg2173
I2185
sg1728
I1739
sg2175
I2187
sg2176
I2188
sg2177
I2189
sg2178
I2190
sg2179
I2191
sg2180
I2192
sg2181
I2193
sg2182
I2194
sg389
I388
sg2183
I2195
sg2184
I2196
sg2185
I2197
sg1671
I1682
sg616
I616
sg2188
I2200
sg2189
I2201
sg2190
I2202
sg1284
I1291
sg2192
I2204
sg2193
I2205
sg2194
I2206
sg2195
I2207
sg2196
I2208
sg2111
I2123
sg2198
I2210
sg2199
I2211
sg1362
I1370
sg1367
I1375
sg1836
I1847
sg2203
I2215
sg2204
I2216
sg1557
I1567
sg2206
I2218
sg2207
I2219
sg2208
I2220
sg2209
I2221
sg2210
I2222
sg2211
I2223
sg2212
I2224
sg2213
I2225
sg1427
I1435
sVi
I2227
sg2215
I2228
sg2216
I2229
sg2217
I2230
sg2218
I2231
sg2219
I2232
sg2220
I2233
sg2221
I2234
sg2222
I2235
sg2223
I2236
sg1496
I1504
sg2225
I2238
sg2226
I2239
sg2227
I2240
sg2228
I2241
sg1299
I1306
sg2230
I2243
sg2231
I2244
sg2236
I2249
sg2232
I2245
sg2233
I2246
sg2234
I2247
sg2235
I2248
sg15
I13
sg2237
I2250
sg2238
I2251
sg2239
I2252
sg2240
I2253
sg1603
I1613
sg2242
I2255
sg2243
I2256
sg2244
I2257
sg2245
I2258
sg2246
I2259
sg2247
I2260
sg1640
I1651
sg2249
I2262
sg2250
I2263
sg2251
I2264
sg2252
I2265
sg2253
I2266
sg2254
I2267
sg2255
I2268
sg2256
I2269
sg2257
I2270
sg2258
I2271
sg2006
I2018
sg1710
I1721
sg2261
I2274
sg1715
I1726
sg1253
I1260
sg2264
I2277
sg2265
I2278
sg2266
I2279
sg2267
I2280
sg1735
I1746
sg2269
I2282
sg2270
I2283
sg787
I787
sg2272
I2285
sg1785
I1796
sg2274
I2287
sg2275
I2288
sg2276
I2289
sg2277
I2290
sg2278
I2291
sg2279
I2292
sg2280
I2293
sg2281
I2294
sg2282
I2295
sg2283
I2296
sg2284
I2297
sg2285
I2298
sg2286
I2299
sg2287
I2300
sg2288
I2301
sg2289
I2302
sg2290
I2303
sg2291
I2304
sg2292
I2305
sg2293
I2306
sg2294
I2307
sg2295
I2308
sg2296
I2309
sg2368
I2381
sg2297
I2310
sg2298
I2311
sg2299
I2312
sg2300
I2313
sg2301
I2314
sg2005
I2017
sg2008
I2020
sg2365
I2378
sg2305
I2318
sg2366
I2379
sg2307
I2320
sg2308
I2321
sg1315
I1323
sg2310
I2323
sg2311
I2324
sg2312
I2325
sg2313
I2326
sg2314
I2327
sg2315
I2328
sg2316
I2329
sg2317
I2330
sg2318
I2331
sg2319
I2332
sg2320
I2333
sg2321
I2334
sg2322
I2335
sg2323
I2336
sg2324
I2337
sg2325
I2338
sg2326
I2339
sg2327
I2340
sg1585
I1595
sg2329
I2342
sg2330
I2343
sg2331
I2344
sg2332
I2345
sg2333
I2346
sg2334
I2347
sg2335
I2348
sg2336
I2349
sg2337
I2350
sg10
I8
sg2338
I2351
sg2339
I2352
sg2340
I2353
sg2341
I2354
sg2342
I2355
sg2343
I2356
sg2344
I2357
sg2345
I2358
sg2346
I2359
sg2347
I2360
sg2348
I2361
sg2349
I2362
sg2350
I2363
sg2351
I2364
sg2352
I2365
sg2353
I2366
sg1932
I1943
sg2355
I2368
sg2356
I2369
sg146
I144
sg2358
I2371
sg2359
I2372
sg2360
I2373
sg2361
I2374
sg2362
I2375
sg2363
I2376
sg178
I176
sg2304
I2317
sg2306
I2319
sg2367
I2380
sg1927
I1938
sg2369
I2382
sg2370
I2383
sg2371
I2384
sg2372
I2385
sg2373
I2386
sg2374
I2387
sg2375
I2388
sg2376
I2389
s(lp2378
S'user_affirm'
p2379
aS'user_ack'
p2380
aS'user_finish'
p2381
aS'user_start'
p2382
ag2381
ag2382
aS'user_restart'
p2383
aS'user_report'
p2384
aS'user_dont_want_report'
p2385
a(lp2386
S'user_inform_whenstart_hour'
p2387
aS'user_inform_whenstart_min'
p2388
aS'user_inform_whened_hour'
p2389
aS'user_inform_whened_min'
p2390
aS'user_inform_duration_hour'
p2391
aS'user_inform_duration_min'
p2392
a(lp2393
S'user_inform_what'
p2394
aS'user_inform_day'
p2395
aS'user_inform_where'
p2396
aS'text'
p2397
at.